In archive components/network/ble/blecontroller/lib/libblecontroller.a:

em_buf.o:     file format elf32-littleriscv


Disassembly of section .text.em_buf_init:

00000000 <em_buf_init>:
   0:	7179                	c.addi16sp	sp,-48
   2:	d04a                	c.swsp	s2,32(sp)
   4:	00000937          	lui	s2,0x0
   8:	d606                	c.swsp	ra,44(sp)
   a:	d422                	c.swsp	s0,40(sp)
   c:	d226                	c.swsp	s1,36(sp)
   e:	ce4e                	c.swsp	s3,28(sp)
  10:	cc52                	c.swsp	s4,24(sp)
  12:	ca56                	c.swsp	s5,20(sp)
  14:	c85a                	c.swsp	s6,16(sp)
  16:	c65e                	c.swsp	s7,12(sp)
  18:	00090413          	addi	s0,s2,0 # 0 <em_buf_init>
  1c:	00090513          	addi	a0,s2,0
  20:	14040e23          	sb	zero,348(s0)
  24:	000009b7          	lui	s3,0x0
  28:	00000097          	auipc	ra,0x0
  2c:	000080e7          	jalr	ra,0(ra) # 28 <em_buf_init+0x28>

00000030 <.LVL0>:
  30:	00898513          	addi	a0,s3,8 # 8 <em_buf_init+0x8>
  34:	00000097          	auipc	ra,0x0
  38:	000080e7          	jalr	ra,0(ra) # 34 <.LVL0+0x4>

0000003c <.LVL1>:
  3c:	280087b7          	lui	a5,0x28008
  40:	2ca78713          	addi	a4,a5,714 # 280082ca <.LASF24+0x28007c56>
  44:	14e42c23          	sw	a4,344(s0)

00000048 <.LVL2>:
  48:	00090a93          	addi	s5,s2,0
  4c:	00090693          	addi	a3,s2,0
  50:	2ce78793          	addi	a5,a5,718
  54:	4481                	c.li	s1,0
  56:	00090a13          	addi	s4,s2,0
  5a:	02600513          	addi	a0,zero,38

0000005e <.LBB70>:
  5e:	75e1                	c.lui	a1,0xffff8

00000060 <.LBE70>:
  60:	4619                	c.li	a2,6

00000062 <.L2>:
  62:	01049713          	slli	a4,s1,0x10
  66:	8341                	c.srli	a4,0x10
  68:	00e69a23          	sh	a4,20(a3)
  6c:	02a70733          	mul	a4,a4,a0
  70:	0485                	c.addi	s1,1

00000072 <.LVL4>:
  72:	06b1                	c.addi	a3,12
  74:	07a9                	c.addi	a5,10
  76:	43e70713          	addi	a4,a4,1086
  7a:	0742                	c.slli	a4,0x10
  7c:	8341                	c.srli	a4,0x10

0000007e <.LBB73>:
  7e:	fee79b23          	sh	a4,-10(a5)

00000082 <.LBB75>:
  82:	fe079d23          	sh	zero,-6(a5)

00000086 <.LBB77>:
  86:	fe079c23          	sh	zero,-8(a5)

0000008a <.LBB79>:
  8a:	ff47d703          	lhu	a4,-12(a5)
  8e:	0742                	c.slli	a4,0x10
  90:	8341                	c.srli	a4,0x10
  92:	fdf77713          	andi	a4,a4,-33
  96:	0742                	c.slli	a4,0x10
  98:	8341                	c.srli	a4,0x10
  9a:	fee79a23          	sh	a4,-12(a5)

0000009e <.LBB81>:
  9e:	ff47d703          	lhu	a4,-12(a5)
  a2:	0742                	c.slli	a4,0x10
  a4:	8341                	c.srli	a4,0x10
  a6:	fdf77713          	andi	a4,a4,-33
  aa:	0742                	c.slli	a4,0x10
  ac:	8341                	c.srli	a4,0x10
  ae:	fee79a23          	sh	a4,-12(a5)

000000b2 <.LBB83>:
  b2:	feb79923          	sh	a1,-14(a5)

000000b6 <.LBE83>:
  b6:	fac496e3          	bne	s1,a2,62 <.L2>
  ba:	28008437          	lui	s0,0x28008
  be:	30a40413          	addi	s0,s0,778 # 2800830a <.LASF24+0x28007c96>

000000c2 <.LBB84>:
  c2:	7be1                	c.lui	s7,0xffff8

000000c4 <.LBE84>:
  c4:	4b69                	c.li	s6,26

000000c6 <.L3>:
  c6:	049a9e23          	sh	s1,92(s5)

000000ca <.LBB87>:
  ca:	00041023          	sh	zero,0(s0)

000000ce <.LBB89>:
  ce:	00041223          	sh	zero,4(s0)

000000d2 <.LBB91>:
  d2:	00041123          	sh	zero,2(s0)

000000d6 <.LBB93>:
  d6:	ffe45783          	lhu	a5,-2(s0)

000000da <.LBE93>:
  da:	058a8593          	addi	a1,s5,88
  de:	00090513          	addi	a0,s2,0

000000e2 <.LBB96>:
  e2:	07c2                	c.slli	a5,0x10
  e4:	83c1                	c.srli	a5,0x10
  e6:	fdf7f793          	andi	a5,a5,-33
  ea:	07c2                	c.slli	a5,0x10
  ec:	83c1                	c.srli	a5,0x10
  ee:	fef41f23          	sh	a5,-2(s0)

000000f2 <.LBB97>:
  f2:	ffe45783          	lhu	a5,-2(s0)

000000f6 <.LBE97>:
  f6:	0485                	c.addi	s1,1

000000f8 <.LVL17>:
  f8:	0ab1                	c.addi	s5,12

000000fa <.LBB100>:
  fa:	07c2                	c.slli	a5,0x10
  fc:	83c1                	c.srli	a5,0x10
  fe:	fdf7f793          	andi	a5,a5,-33
 102:	07c2                	c.slli	a5,0x10
 104:	83c1                	c.srli	a5,0x10
 106:	fef41f23          	sh	a5,-2(s0)

0000010a <.LBB101>:
 10a:	ff741e23          	sh	s7,-4(s0)

0000010e <.LBE101>:
 10e:	00000097          	auipc	ra,0x0
 112:	000080e7          	jalr	ra,0(ra) # 10e <.LBE101>

00000116 <.LVL20>:
 116:	0429                	c.addi	s0,10
 118:	fb6497e3          	bne	s1,s6,c6 <.L3>

0000011c <.LVL21>:
 11c:	000005b7          	lui	a1,0x0
 120:	052207b7          	lui	a5,0x5220
 124:	14858593          	addi	a1,a1,328 # 148 <.LVL22+0x10>
 128:	00898513          	addi	a0,s3,8
 12c:	14fa2623          	sw	a5,332(s4)
 130:	00000097          	auipc	ra,0x0
 134:	000080e7          	jalr	ra,0(ra) # 130 <.LVL21+0x14>

00000138 <.LVL22>:
 138:	062607b7          	lui	a5,0x6260
 13c:	000005b7          	lui	a1,0x0
 140:	0785                	c.addi	a5,1
 142:	15058593          	addi	a1,a1,336 # 150 <.LVL22+0x18>
 146:	00898513          	addi	a0,s3,8
 14a:	14fa2a23          	sw	a5,340(s4)
 14e:	00000097          	auipc	ra,0x0
 152:	000080e7          	jalr	ra,0(ra) # 14e <.LVL22+0x16>

00000156 <.LVL23>:
 156:	280087b7          	lui	a5,0x28008
 15a:	3d678793          	addi	a5,a5,982 # 280083d6 <.LASF24+0x28007d62>
 15e:	4681                	c.li	a3,0
 160:	10400513          	addi	a0,zero,260

00000164 <.LBB102>:
 164:	45b9                	c.li	a1,14

00000166 <.LBE102>:
 166:	4621                	c.li	a2,8

00000168 <.L4>:
 168:	0685                	c.addi	a3,1

0000016a <.LBE103>:
 16a:	02a68733          	mul	a4,a3,a0
 16e:	07b9                	c.addi	a5,14
 170:	62670713          	addi	a4,a4,1574
 174:	0742                	c.slli	a4,0x10
 176:	8341                	c.srli	a4,0x10

00000178 <.LBB106>:
 178:	fee79923          	sh	a4,-14(a5)

0000017c <.LBB108>:
 17c:	0076f713          	andi	a4,a3,7

00000180 <.LBE108>:
 180:	02b70733          	mul	a4,a4,a1

00000184 <.LVL29>:
 184:	3ce70713          	addi	a4,a4,974

00000188 <.LBB109>:
 188:	fee79523          	sh	a4,-22(a5)

0000018c <.LBB111>:
 18c:	fe079b23          	sh	zero,-10(a5)

00000190 <.LBB113>:
 190:	fee7d703          	lhu	a4,-18(a5)
 194:	0742                	c.slli	a4,0x10
 196:	8341                	c.srli	a4,0x10
 198:	fdf77713          	andi	a4,a4,-33
 19c:	0742                	c.slli	a4,0x10
 19e:	8341                	c.srli	a4,0x10
 1a0:	fee79723          	sh	a4,-18(a5)

000001a4 <.LBB115>:
 1a4:	fee7d703          	lhu	a4,-18(a5)
 1a8:	0742                	c.slli	a4,0x10
 1aa:	8341                	c.srli	a4,0x10
 1ac:	fdf77713          	andi	a4,a4,-33
 1b0:	0742                	c.slli	a4,0x10
 1b2:	8341                	c.srli	a4,0x10
 1b4:	fee79723          	sh	a4,-18(a5)

000001b8 <.LBE115>:
 1b8:	fac698e3          	bne	a3,a2,168 <.L4>
 1bc:	28008737          	lui	a4,0x28008

000001c0 <.LBB118>:
 1c0:	7671                	c.lui	a2,0xffffc

000001c2 <.LBE118>:
 1c2:	09e70793          	addi	a5,a4,158 # 2800809e <.LASF24+0x28007a2a>

000001c6 <.LBB122>:
 1c6:	167d                	c.addi	a2,-1

000001c8 <.LBE122>:
 1c8:	20e70693          	addi	a3,a4,526

000001cc <.L5>:
 1cc:	0007d703          	lhu	a4,0(a5)
 1d0:	05c78793          	addi	a5,a5,92
 1d4:	8f71                	c.and	a4,a2
 1d6:	fae79223          	sh	a4,-92(a5)

000001da <.LBB124>:
 1da:	fb67d703          	lhu	a4,-74(a5)
 1de:	0742                	c.slli	a4,0x10
 1e0:	8341                	c.srli	a4,0x10
 1e2:	cff77713          	andi	a4,a4,-769
 1e6:	0742                	c.slli	a4,0x10
 1e8:	8341                	c.srli	a4,0x10
 1ea:	fae79b23          	sh	a4,-74(a5)

000001ee <.LBB126>:
 1ee:	fe079723          	sh	zero,-18(a5)

000001f2 <.LBE126>:
 1f2:	fcd79de3          	bne	a5,a3,1cc <.L5>
 1f6:	50b2                	c.lwsp	ra,44(sp)
 1f8:	5422                	c.lwsp	s0,40(sp)
 1fa:	5492                	c.lwsp	s1,36(sp)
 1fc:	5902                	c.lwsp	s2,32(sp)
 1fe:	49f2                	c.lwsp	s3,28(sp)
 200:	4a62                	c.lwsp	s4,24(sp)
 202:	4ad2                	c.lwsp	s5,20(sp)
 204:	4b42                	c.lwsp	s6,16(sp)
 206:	4bb2                	c.lwsp	s7,12(sp)
 208:	6145                	c.addi16sp	sp,48
 20a:	8082                	c.jr	ra

Disassembly of section .text.em_buf_rx_free:

00000000 <em_buf_rx_free>:
   0:	47b9                	c.li	a5,14
   2:	02f50533          	mul	a0,a0,a5

00000006 <.LVL40>:
   6:	280087b7          	lui	a5,0x28008
   a:	3ce78793          	addi	a5,a5,974 # 280083ce <.LASF24+0x28007d5a>
   e:	953e                	c.add	a0,a5
  10:	00055783          	lhu	a5,0(a0)
  14:	07c6                	c.slli	a5,0x11
  16:	83c5                	c.srli	a5,0x11
  18:	00f51023          	sh	a5,0(a0)

0000001c <.LBE128>:
  1c:	8082                	c.jr	ra

Disassembly of section .text.em_buf_rx_buff_addr_get:

00000000 <em_buf_rx_buff_addr_get>:
   0:	47b9                	c.li	a5,14
   2:	02f507b3          	mul	a5,a0,a5
   6:	28008737          	lui	a4,0x28008
   a:	3d670513          	addi	a0,a4,982 # 280083d6 <.LASF24+0x28007d62>

0000000e <.LVL43>:
   e:	97aa                	c.add	a5,a0
  10:	0007d503          	lhu	a0,0(a5)

00000014 <.LBE130>:
  14:	953a                	c.add	a0,a4
  16:	8082                	c.jr	ra

Disassembly of section .text.em_buf_tx_buff_addr_get:

00000000 <em_buf_tx_buff_addr_get>:
   0:	00455503          	lhu	a0,4(a0)

00000004 <.LVL45>:
   4:	280087b7          	lui	a5,0x28008
   8:	953e                	c.add	a0,a5
   a:	8082                	c.jr	ra

Disassembly of section .text.em_buf_tx_free:

00000000 <em_buf_tx_free>:
   0:	1101                	c.addi	sp,-32
   2:	cc22                	c.swsp	s0,24(sp)

00000004 <.LVL47>:
   4:	ce06                	c.swsp	ra,28(sp)
   6:	ca26                	c.swsp	s1,20(sp)
   8:	c84a                	c.swsp	s2,16(sp)
   a:	c64e                	c.swsp	s3,12(sp)
   c:	00455783          	lhu	a5,4(a0)

00000010 <.LBB136>:
  10:	4729                	c.li	a4,10

00000012 <.LBE136>:
  12:	842a                	c.mv	s0,a0

00000014 <.LBB137>:
  14:	02e787b3          	mul	a5,a5,a4
  18:	28008737          	lui	a4,0x28008
  1c:	2d270713          	addi	a4,a4,722 # 280082d2 <.LASF24+0x28007c5e>
  20:	97ba                	c.add	a5,a4
  22:	0007d583          	lhu	a1,0(a5) # 28008000 <.LASF24+0x2800798c>
  26:	05c2                	c.slli	a1,0x10
  28:	81c1                	c.srli	a1,0x10

0000002a <.LBB138>:
  2a:	300024f3          	csrrs	s1,mstatus,zero

0000002e <.LBB140>:
  2e:	300477f3          	csrrci	a5,mstatus,8

00000032 <.LBE140>:
  32:	01059793          	slli	a5,a1,0x10
  36:	87c1                	c.srai	a5,0x10
  38:	000009b7          	lui	s3,0x0

0000003c <.LBE138>:
  3c:	4901                	c.li	s2,0

0000003e <.LBB163>:
  3e:	0207d363          	bge	a5,zero,64 <.L15>

00000042 <.LBB141>:
  42:	0ff5f593          	andi	a1,a1,255

00000046 <.LVL52>:
  46:	02958593          	addi	a1,a1,41
  4a:	00098793          	addi	a5,s3,0 # 0 <em_buf_tx_free>
  4e:	058e                	c.slli	a1,0x3
  50:	00000537          	lui	a0,0x0

00000054 <.LVL53>:
  54:	95be                	c.add	a1,a5
  56:	00850513          	addi	a0,a0,8 # 8 <.LVL47+0x4>
  5a:	00000097          	auipc	ra,0x0
  5e:	000080e7          	jalr	ra,0(ra) # 5a <.LVL53+0x6>

00000062 <.LBE141>:
  62:	4905                	c.li	s2,1

00000064 <.L15>:
  64:	00445683          	lhu	a3,4(s0)

00000068 <.LBB149>:
  68:	4629                	c.li	a2,10
  6a:	28008737          	lui	a4,0x28008
  6e:	02c686b3          	mul	a3,a3,a2

00000072 <.LVL57>:
  72:	2cc70793          	addi	a5,a4,716 # 280082cc <.LASF24+0x28007c58>

00000076 <.LBE149>:
  76:	85a2                	c.mv	a1,s0
  78:	00098513          	addi	a0,s3,0

0000007c <.LBB150>:
  7c:	96be                	c.add	a3,a5
  7e:	00069023          	sh	zero,0(a3)

00000082 <.LBB151>:
  82:	00445683          	lhu	a3,4(s0)

00000086 <.LBB155>:
  86:	2d270793          	addi	a5,a4,722

0000008a <.LBB156>:
  8a:	2ce70713          	addi	a4,a4,718

0000008e <.LBB160>:
  8e:	02c686b3          	mul	a3,a3,a2

00000092 <.LVL60>:
  92:	96be                	c.add	a3,a5
  94:	00069023          	sh	zero,0(a3)

00000098 <.LBB161>:
  98:	00445783          	lhu	a5,4(s0)

0000009c <.LBB162>:
  9c:	02c787b3          	mul	a5,a5,a2

000000a0 <.LVL63>:
  a0:	97ba                	c.add	a5,a4
  a2:	00079023          	sh	zero,0(a5)

000000a6 <.LBE162>:
  a6:	00000097          	auipc	ra,0x0
  aa:	000080e7          	jalr	ra,0(ra) # a6 <.LBE162>

000000ae <.LBE143>:
  ae:	30049073          	csrrw	zero,mstatus,s1

000000b2 <.LBE163>:
  b2:	40f2                	c.lwsp	ra,28(sp)
  b4:	4462                	c.lwsp	s0,24(sp)

000000b6 <.LVL66>:
  b6:	854a                	c.mv	a0,s2
  b8:	44d2                	c.lwsp	s1,20(sp)

000000ba <.LVL67>:
  ba:	4942                	c.lwsp	s2,16(sp)

000000bc <.LVL68>:
  bc:	49b2                	c.lwsp	s3,12(sp)
  be:	6105                	c.addi16sp	sp,32
  c0:	8082                	c.jr	ra

llc_ch_asses.o:     file format elf32-littleriscv


Disassembly of section .text.llc_ch_assess_local:

00000000 <llc_ch_assess_local>:
   0:	000007b7          	lui	a5,0x0
   4:	050a                	c.slli	a0,0x2

00000006 <.LVL1>:
   6:	00078793          	addi	a5,a5,0 # 0 <llc_ch_assess_local>
   a:	97aa                	c.add	a5,a0
   c:	4388                	c.lw	a0,0(a5)
   e:	00000737          	lui	a4,0x0
  12:	0015f813          	andi	a6,a1,1
  16:	96aa                	c.add	a3,a0

00000018 <.LVL3>:
  18:	01468783          	lb	a5,20(a3)
  1c:	00070713          	addi	a4,a4,0 # 0 <llc_ch_assess_local>
  20:	02080763          	beq	a6,zero,4e <.L2>

00000024 <.LBB17>:
  24:	03070583          	lb	a1,48(a4)

00000028 <.LVL4>:
  28:	00c5d663          	bge	a1,a2,34 <.L3>

0000002c <.L10>:
  2c:	17f5                	c.addi	a5,-3

0000002e <.L8>:
  2e:	00f68a23          	sb	a5,20(a3)
  32:	a029                	c.j	3c <.L4>

00000034 <.L3>:
  34:	03954603          	lbu	a2,57(a0)

00000038 <.LVL7>:
  38:	17fd                	c.addi	a5,-1
  3a:	da75                	c.beqz	a2,2e <.L8>

0000003c <.L4>:
  3c:	01468603          	lb	a2,20(a3)

00000040 <.LBB19>:
  40:	02e70783          	lb	a5,46(a4)

00000044 <.LBE19>:
  44:	00f65b63          	bge	a2,a5,5a <.L6>

00000048 <.L9>:
  48:	00f68a23          	sb	a5,20(a3)
  4c:	a819                	c.j	62 <.L1>

0000004e <.L2>:
  4e:	89a1                	c.andi	a1,8

00000050 <.LVL9>:
  50:	0ff7f793          	andi	a5,a5,255
  54:	fde1                	c.bnez	a1,2c <.L10>
  56:	078d                	c.addi	a5,3
  58:	bfd9                	c.j	2e <.L8>

0000005a <.L6>:
  5a:	02f70783          	lb	a5,47(a4)

0000005e <.LBE21>:
  5e:	fec7c5e3          	blt	a5,a2,48 <.L9>

00000062 <.L1>:
  62:	8082                	c.jr	ra

Disassembly of section .text.llc_ch_assess_get_local_ch_map:

00000000 <llc_ch_assess_get_local_ch_map>:
   0:	000007b7          	lui	a5,0x0
   4:	1141                	c.addi	sp,-16
   6:	050a                	c.slli	a0,0x2

00000008 <.LVL12>:
   8:	00078793          	addi	a5,a5,0 # 0 <llc_ch_assess_get_local_ch_map>
   c:	c422                	c.swsp	s0,8(sp)
   e:	c04a                	c.swsp	s2,0(sp)
  10:	97aa                	c.add	a5,a0
  12:	c606                	c.swsp	ra,12(sp)
  14:	c226                	c.swsp	s1,4(sp)
  16:	4384                	c.lw	s1,0(a5)

00000018 <.LVL13>:
  18:	000007b7          	lui	a5,0x0
  1c:	0007a783          	lw	a5,0(a5) # 0 <llc_ch_assess_get_local_ch_map>
  20:	842e                	c.mv	s0,a1
  22:	8932                	c.mv	s2,a2
  24:	4581                	c.li	a1,0

00000026 <.LVL14>:
  26:	4615                	c.li	a2,5

00000028 <.LVL15>:
  28:	8522                	c.mv	a0,s0
  2a:	9782                	c.jalr	a5

0000002c <.LBB23>:
  2c:	00000637          	lui	a2,0x0

00000030 <.LBE23>:
  30:	02400693          	addi	a3,zero,36
  34:	4501                	c.li	a0,0

00000036 <.LBB30>:
  36:	4885                	c.li	a7,1

00000038 <.LBB28>:
  38:	00060613          	addi	a2,a2,0 # 0 <llc_ch_assess_get_local_ch_map>

0000003c <.LBE28>:
  3c:	587d                	c.li	a6,-1

0000003e <.L13>:
  3e:	01869713          	slli	a4,a3,0x18
  42:	8761                	c.srai	a4,0x18
  44:	870d                	c.srai	a4,0x3
  46:	00e905b3          	add	a1,s2,a4
  4a:	0076f793          	andi	a5,a3,7
  4e:	0005c583          	lbu	a1,0(a1)
  52:	00f897b3          	sll	a5,a7,a5
  56:	0ff7f793          	andi	a5,a5,255
  5a:	8dfd                	c.and	a1,a5
  5c:	c195                	c.beqz	a1,80 <.L12>

0000005e <.LBB29>:
  5e:	00d485b3          	add	a1,s1,a3
  62:	01458303          	lb	t1,20(a1)
  66:	02e60583          	lb	a1,46(a2)
  6a:	0065db63          	bge	a1,t1,80 <.L12>
  6e:	9722                	c.add	a4,s0
  70:	00074583          	lbu	a1,0(a4)
  74:	0505                	c.addi	a0,1

00000076 <.LVL18>:
  76:	0ff57513          	andi	a0,a0,255
  7a:	8fcd                	c.or	a5,a1
  7c:	00f70023          	sb	a5,0(a4)

00000080 <.L12>:
  80:	16fd                	c.addi	a3,-1

00000082 <.LVL20>:
  82:	fb069ee3          	bne	a3,a6,3e <.L13>

00000086 <.LBE30>:
  86:	40b2                	c.lwsp	ra,12(sp)
  88:	4422                	c.lwsp	s0,8(sp)

0000008a <.LVL21>:
  8a:	4492                	c.lwsp	s1,4(sp)

0000008c <.LVL22>:
  8c:	4902                	c.lwsp	s2,0(sp)

0000008e <.LVL23>:
  8e:	0141                	c.addi	sp,16
  90:	8082                	c.jr	ra

Disassembly of section .text.llc_ch_assess_get_current_ch_map:

00000000 <llc_ch_assess_get_current_ch_map>:
   0:	000007b7          	lui	a5,0x0
   4:	050a                	c.slli	a0,0x2

00000006 <.LVL25>:
   6:	00078793          	addi	a5,a5,0 # 0 <llc_ch_assess_get_current_ch_map>
   a:	97aa                	c.add	a5,a0
   c:	4388                	c.lw	a0,0(a5)
   e:	05e50513          	addi	a0,a0,94
  12:	8082                	c.jr	ra

Disassembly of section .text.llc_ch_assess_reass_ch:

00000000 <llc_ch_assess_reass_ch>:
   0:	000007b7          	lui	a5,0x0
   4:	050a                	c.slli	a0,0x2

00000006 <.LVL27>:
   6:	00078793          	addi	a5,a5,0 # 0 <llc_ch_assess_reass_ch>
   a:	97aa                	c.add	a5,a0
   c:	0007af03          	lw	t5,0(a5)
  10:	4709                	c.li	a4,2
  12:	4529                	c.li	a0,10
  14:	03bf4783          	lbu	a5,59(t5)

00000018 <.LVL29>:
  18:	00d77763          	bgeu	a4,a3,26 <.L21>
  1c:	00569513          	slli	a0,a3,0x5
  20:	07f50513          	addi	a0,a0,127
  24:	811d                	c.srli	a0,0x7

00000026 <.L21>:
  26:	00000737          	lui	a4,0x0

0000002a <.LBE31>:
  2a:	03174703          	lbu	a4,49(a4) # 31 <.LBE31+0x7>
  2e:	02500813          	addi	a6,zero,37
  32:	02400e13          	addi	t3,zero,36
  36:	02ef0d23          	sb	a4,58(t5)

0000003a <.LVL31>:
  3a:	4e85                	c.li	t4,1

0000003c <.L25>:
  3c:	00b78713          	addi	a4,a5,11
  40:	0ff77713          	andi	a4,a4,255

00000044 <.LVL33>:
  44:	04ee7f63          	bgeu	t3,a4,a2 <.L27>
  48:	1799                	c.addi	a5,-26
  4a:	0ff7f793          	andi	a5,a5,255

0000004e <.L22>:
  4e:	0037d693          	srli	a3,a5,0x3
  52:	00d588b3          	add	a7,a1,a3
  56:	0077f713          	andi	a4,a5,7
  5a:	0008c303          	lbu	t1,0(a7)
  5e:	00ee9733          	sll	a4,t4,a4
  62:	0ff77713          	andi	a4,a4,255
  66:	00677333          	and	t1,a4,t1
  6a:	02031363          	bne	t1,zero,90 <.L23>
  6e:	96b2                	c.add	a3,a2
  70:	0006c683          	lbu	a3,0(a3)
  74:	8ef9                	c.and	a3,a4
  76:	ce89                	c.beqz	a3,90 <.L23>
  78:	00ff06b3          	add	a3,t5,a5
  7c:	00068a23          	sb	zero,20(a3)
  80:	0008c683          	lbu	a3,0(a7)
  84:	157d                	c.addi	a0,-1

00000086 <.LVL35>:
  86:	0542                	c.slli	a0,0x10
  88:	8f55                	c.or	a4,a3
  8a:	00e88023          	sb	a4,0(a7)
  8e:	8141                	c.srli	a0,0x10

00000090 <.L23>:
  90:	187d                	c.addi	a6,-1

00000092 <.LVL37>:
  92:	0ff87813          	andi	a6,a6,255
  96:	00080363          	beq	a6,zero,9c <.L24>
  9a:	f14d                	c.bnez	a0,3c <.L25>

0000009c <.L24>:
  9c:	02ff0da3          	sb	a5,59(t5)
  a0:	8082                	c.jr	ra

000000a2 <.L27>:
  a2:	87ba                	c.mv	a5,a4
  a4:	b76d                	c.j	4e <.L22>

llc_hci.o:     file format elf32-littleriscv


Disassembly of section .text.hci_le_set_data_len_cmd_handler:

00000000 <hci_le_set_data_len_cmd_handler>:
   0:	1101                	c.addi	sp,-32
   2:	8532                	c.mv	a0,a2

00000004 <.LVL1>:
   4:	ca26                	c.swsp	s1,20(sp)
   6:	c84a                	c.swsp	s2,16(sp)
   8:	ce06                	c.swsp	ra,28(sp)
   a:	cc22                	c.swsp	s0,24(sp)
   c:	84ae                	c.mv	s1,a1
   e:	8936                	c.mv	s2,a3
  10:	c632                	c.swsp	a2,12(sp)
  12:	00000097          	auipc	ra,0x0
  16:	000080e7          	jalr	ra,0(ra) # 12 <.LVL1+0xe>

0000001a <.LBB106>:
  1a:	893d                	c.andi	a0,15

0000001c <.LVL3>:
  1c:	47bd                	c.li	a5,15
  1e:	08f50763          	beq	a0,a5,ac <.L4>

00000022 <.LBB108>:
  22:	0004d503          	lhu	a0,0(s1)
  26:	000007b7          	lui	a5,0x0
  2a:	00078793          	addi	a5,a5,0 # 0 <hci_le_set_data_len_cmd_handler>
  2e:	00251713          	slli	a4,a0,0x2
  32:	97ba                	c.add	a5,a4
  34:	439c                	c.lw	a5,0(a5)

00000036 <.LVL4>:
  36:	0527c703          	lbu	a4,82(a5)
  3a:	ef25                	c.bnez	a4,b2 <.L5>
  3c:	0024d583          	lhu	a1,2(s1)
  40:	0e000693          	addi	a3,zero,224
  44:	fe558713          	addi	a4,a1,-27
  48:	0742                	c.slli	a4,0x10
  4a:	8341                	c.srli	a4,0x10
  4c:	06e6e563          	bltu	a3,a4,b6 <.L8>
  50:	0044d683          	lhu	a3,4(s1)
  54:	70000813          	addi	a6,zero,1792
  58:	eb868713          	addi	a4,a3,-328
  5c:	0742                	c.slli	a4,0x10
  5e:	8341                	c.srli	a4,0x10
  60:	04e86b63          	bltu	a6,a4,b6 <.L8>
  64:	4709                	c.li	a4,2
  66:	04a76863          	bltu	a4,a0,b6 <.L8>
  6a:	0467d703          	lhu	a4,70(a5)
  6e:	4632                	c.lwsp	a2,12(sp)
  70:	00b71663          	bne	a4,a1,7c <.L3>
  74:	04e7d703          	lhu	a4,78(a5)
  78:	04d70163          	beq	a4,a3,ba <.L9>

0000007c <.L3>:
  7c:	85b2                	c.mv	a1,a2

0000007e <.LBB112>:
  7e:	c7c4                	c.sw	s1,12(a5)

00000080 <.LBE112>:
  80:	10700513          	addi	a0,zero,263
  84:	00000097          	auipc	ra,0x0
  88:	000080e7          	jalr	ra,0(ra) # 84 <.LBE112+0x4>

0000008c <.LVL7>:
  8c:	4581                	c.li	a1,0
  8e:	4405                	c.li	s0,1

00000090 <.L2>:
  90:	0004d603          	lhu	a2,0(s1)
  94:	854a                	c.mv	a0,s2
  96:	00000097          	auipc	ra,0x0
  9a:	000080e7          	jalr	ra,0(ra) # 96 <.L2+0x6>

0000009e <.LVL9>:
  9e:	8522                	c.mv	a0,s0
  a0:	40f2                	c.lwsp	ra,28(sp)
  a2:	4462                	c.lwsp	s0,24(sp)

000000a4 <.LVL10>:
  a4:	44d2                	c.lwsp	s1,20(sp)

000000a6 <.LVL11>:
  a6:	4942                	c.lwsp	s2,16(sp)
  a8:	6105                	c.addi16sp	sp,32
  aa:	8082                	c.jr	ra

000000ac <.L4>:
  ac:	45b1                	c.li	a1,12

000000ae <.L11>:
  ae:	4401                	c.li	s0,0
  b0:	b7c5                	c.j	90 <.L2>

000000b2 <.L5>:
  b2:	45e9                	c.li	a1,26
  b4:	bfed                	c.j	ae <.L11>

000000b6 <.L8>:
  b6:	45c9                	c.li	a1,18
  b8:	bfdd                	c.j	ae <.L11>

000000ba <.L9>:
  ba:	4581                	c.li	a1,0
  bc:	bfcd                	c.j	ae <.L11>

Disassembly of section .text.hci_le_rem_con_param_req_neg_reply_cmd_handler:

00000000 <hci_le_rem_con_param_req_neg_reply_cmd_handler>:
   0:	1101                	c.addi	sp,-32
   2:	8532                	c.mv	a0,a2

00000004 <.LVL15>:
   4:	cc22                	c.swsp	s0,24(sp)
   6:	c64e                	c.swsp	s3,12(sp)
   8:	c452                	c.swsp	s4,8(sp)
   a:	842e                	c.mv	s0,a1
   c:	ce06                	c.swsp	ra,28(sp)
   e:	ca26                	c.swsp	s1,20(sp)
  10:	c84a                	c.swsp	s2,16(sp)
  12:	8a32                	c.mv	s4,a2
  14:	89b6                	c.mv	s3,a3
  16:	00000097          	auipc	ra,0x0
  1a:	000080e7          	jalr	ra,0(ra) # 16 <.LVL15+0x12>

0000001e <.LBB114>:
  1e:	00f57713          	andi	a4,a0,15
  22:	47bd                	c.li	a5,15
  24:	45b1                	c.li	a1,12
  26:	06f70963          	beq	a4,a5,98 <.L13>
  2a:	00257793          	andi	a5,a0,2
  2e:	892a                	c.mv	s2,a0

00000030 <.LBB116>:
  30:	c7a5                	c.beqz	a5,98 <.L13>
  32:	00045503          	lhu	a0,0(s0)

00000036 <.LVL18>:
  36:	000004b7          	lui	s1,0x0
  3a:	00048493          	addi	s1,s1,0 # 0 <hci_le_rem_con_param_req_neg_reply_cmd_handler>
  3e:	00251793          	slli	a5,a0,0x2
  42:	97a6                	c.add	a5,s1
  44:	439c                	c.lw	a5,0(a5)
  46:	0a47c703          	lbu	a4,164(a5)
  4a:	4789                	c.li	a5,2
  4c:	04f71663          	bne	a4,a5,98 <.L13>
  50:	00244703          	lbu	a4,2(s0)
  54:	03b00793          	addi	a5,zero,59
  58:	45c9                	c.li	a1,18
  5a:	02f71f63          	bne	a4,a5,98 <.L13>
  5e:	4585                	c.li	a1,1
  60:	00000097          	auipc	ra,0x0
  64:	000080e7          	jalr	ra,0(ra) # 60 <.LVL18+0x2a>

00000068 <.LBB118>:
  68:	0fd97593          	andi	a1,s2,253
  6c:	8552                	c.mv	a0,s4
  6e:	00000097          	auipc	ra,0x0
  72:	000080e7          	jalr	ra,0(ra) # 6e <.LBB118+0x6>

00000076 <.LBE118>:
  76:	00045783          	lhu	a5,0(s0)
  7a:	45bd                	c.li	a1,15
  7c:	078a                	c.slli	a5,0x2
  7e:	94be                	c.add	s1,a5
  80:	409c                	c.lw	a5,0(s1)
  82:	0a078223          	sb	zero,164(a5)

00000086 <.LVL21>:
  86:	00244603          	lbu	a2,2(s0)
  8a:	00045503          	lhu	a0,0(s0)
  8e:	00000097          	auipc	ra,0x0
  92:	000080e7          	jalr	ra,0(ra) # 8e <.LVL21+0x8>

00000096 <.LVL22>:
  96:	4581                	c.li	a1,0

00000098 <.L13>:
  98:	00045603          	lhu	a2,0(s0)
  9c:	854e                	c.mv	a0,s3
  9e:	00000097          	auipc	ra,0x0
  a2:	000080e7          	jalr	ra,0(ra) # 9e <.L13+0x6>

000000a6 <.LVL24>:
  a6:	40f2                	c.lwsp	ra,28(sp)
  a8:	4462                	c.lwsp	s0,24(sp)

000000aa <.LVL25>:
  aa:	44d2                	c.lwsp	s1,20(sp)
  ac:	4942                	c.lwsp	s2,16(sp)
  ae:	49b2                	c.lwsp	s3,12(sp)
  b0:	4a22                	c.lwsp	s4,8(sp)
  b2:	4501                	c.li	a0,0
  b4:	6105                	c.addi16sp	sp,32
  b6:	8082                	c.jr	ra

Disassembly of section .text.hci_le_rem_con_param_req_reply_cmd_handler:

00000000 <hci_le_rem_con_param_req_reply_cmd_handler>:
   0:	7179                	c.addi16sp	sp,-48
   2:	8532                	c.mv	a0,a2

00000004 <.LVL27>:
   4:	d422                	c.swsp	s0,40(sp)
   6:	cc52                	c.swsp	s4,24(sp)
   8:	ca56                	c.swsp	s5,20(sp)
   a:	c65e                	c.swsp	s7,12(sp)
   c:	d606                	c.swsp	ra,44(sp)
   e:	d226                	c.swsp	s1,36(sp)
  10:	d04a                	c.swsp	s2,32(sp)
  12:	ce4e                	c.swsp	s3,28(sp)
  14:	c85a                	c.swsp	s6,16(sp)
  16:	c462                	c.swsp	s8,8(sp)
  18:	c266                	c.swsp	s9,4(sp)
  1a:	842e                	c.mv	s0,a1
  1c:	8ab2                	c.mv	s5,a2
  1e:	8bb6                	c.mv	s7,a3
  20:	00000097          	auipc	ra,0x0
  24:	000080e7          	jalr	ra,0(ra) # 20 <.LVL27+0x1c>

00000028 <.LBB120>:
  28:	00f57713          	andi	a4,a0,15
  2c:	47bd                	c.li	a5,15
  2e:	4a31                	c.li	s4,12
  30:	0af70963          	beq	a4,a5,e2 <.L21>
  34:	00257793          	andi	a5,a0,2
  38:	8b2a                	c.mv	s6,a0

0000003a <.LBB122>:
  3a:	c7c5                	c.beqz	a5,e2 <.L21>
  3c:	00045503          	lhu	a0,0(s0)

00000040 <.LBB124>:
  40:	00000937          	lui	s2,0x0
  44:	00090793          	addi	a5,s2,0 # 0 <hci_le_rem_con_param_req_reply_cmd_handler>
  48:	00251713          	slli	a4,a0,0x2
  4c:	97ba                	c.add	a5,a4
  4e:	0007a983          	lw	s3,0(a5)

00000052 <.LVL31>:
  52:	4789                	c.li	a5,2
  54:	00090913          	addi	s2,s2,0
  58:	0a49cc83          	lbu	s9,164(s3)
  5c:	08fc9363          	bne	s9,a5,e2 <.L21>

00000060 <.LBB125>:
  60:	0049a483          	lw	s1,4(s3)

00000064 <.LBE126>:
  64:	4c0d                	c.li	s8,3
  66:	00000097          	auipc	ra,0x0
  6a:	000080e7          	jalr	ra,0(ra) # 66 <.LBE126+0x2>

0000006e <.LVL34>:
  6e:	0b851063          	bne	a0,s8,10e <.L22>
  72:	01948023          	sb	s9,0(s1)

00000076 <.LBB128>:
  76:	00245703          	lhu	a4,2(s0)

0000007a <.LBB131>:
  7a:	00e4d783          	lhu	a5,14(s1)
  7e:	00f77363          	bgeu	a4,a5,84 <.L23>
  82:	87ba                	c.mv	a5,a4

00000084 <.L23>:
  84:	00f49723          	sh	a5,14(s1)

00000088 <.LBB132>:
  88:	00445703          	lhu	a4,4(s0)

0000008c <.LBB135>:
  8c:	0104d783          	lhu	a5,16(s1)
  90:	00e7f363          	bgeu	a5,a4,96 <.L24>
  94:	87ba                	c.mv	a5,a4

00000096 <.L24>:
  96:	00f49823          	sh	a5,16(s1)
  9a:	00645783          	lhu	a5,6(s0)
  9e:	00f49323          	sh	a5,6(s1)

000000a2 <.LBB136>:
  a2:	00845703          	lhu	a4,8(s0)

000000a6 <.LBB139>:
  a6:	0084d783          	lhu	a5,8(s1)
  aa:	00e7f363          	bgeu	a5,a4,b0 <.L25>
  ae:	87ba                	c.mv	a5,a4

000000b0 <.L25>:
  b0:	00f49423          	sh	a5,8(s1)
  b4:	8526                	c.mv	a0,s1
  b6:	00000097          	auipc	ra,0x0
  ba:	000080e7          	jalr	ra,0(ra) # b6 <.L25+0x6>

000000be <.LBB140>:
  be:	0fdb7593          	andi	a1,s6,253
  c2:	8556                	c.mv	a0,s5
  c4:	00000097          	auipc	ra,0x0
  c8:	000080e7          	jalr	ra,0(ra) # c4 <.LBB140+0x6>

000000cc <.LBE140>:
  cc:	0a098223          	sb	zero,164(s3)

000000d0 <.LBB142>:
  d0:	00045783          	lhu	a5,0(s0)

000000d4 <.LBE142>:
  d4:	4a01                	c.li	s4,0

000000d6 <.LBB145>:
  d6:	078a                	c.slli	a5,0x2
  d8:	993e                	c.add	s2,a5
  da:	00092783          	lw	a5,0(s2)

000000de <.LVL41>:
  de:	0007a223          	sw	zero,4(a5)

000000e2 <.L21>:
  e2:	00045603          	lhu	a2,0(s0)
  e6:	855e                	c.mv	a0,s7
  e8:	85d2                	c.mv	a1,s4
  ea:	00000097          	auipc	ra,0x0
  ee:	000080e7          	jalr	ra,0(ra) # ea <.L21+0x8>

000000f2 <.LVL43>:
  f2:	50b2                	c.lwsp	ra,44(sp)
  f4:	5422                	c.lwsp	s0,40(sp)

000000f6 <.LVL44>:
  f6:	5492                	c.lwsp	s1,36(sp)
  f8:	5902                	c.lwsp	s2,32(sp)
  fa:	49f2                	c.lwsp	s3,28(sp)
  fc:	4a62                	c.lwsp	s4,24(sp)

000000fe <.LVL45>:
  fe:	4ad2                	c.lwsp	s5,20(sp)
 100:	4b42                	c.lwsp	s6,16(sp)
 102:	4bb2                	c.lwsp	s7,12(sp)
 104:	4c22                	c.lwsp	s8,8(sp)
 106:	4c92                	c.lwsp	s9,4(sp)
 108:	4501                	c.li	a0,0
 10a:	6145                	c.addi16sp	sp,48
 10c:	8082                	c.jr	ra

0000010e <.L22>:
 10e:	00045503          	lhu	a0,0(s0)
 112:	4a01                	c.li	s4,0
 114:	00000097          	auipc	ra,0x0
 118:	000080e7          	jalr	ra,0(ra) # 114 <.L22+0x6>

0000011c <.LVL47>:
 11c:	4791                	c.li	a5,4
 11e:	fcf512e3          	bne	a0,a5,e2 <.L21>
 122:	00245783          	lhu	a5,2(s0)
 126:	8626                	c.mv	a2,s1
 128:	00f49723          	sh	a5,14(s1)
 12c:	00445783          	lhu	a5,4(s0)
 130:	00f49823          	sh	a5,16(s1)
 134:	00645783          	lhu	a5,6(s0)
 138:	00f49323          	sh	a5,6(s1)
 13c:	00845783          	lhu	a5,8(s0)
 140:	00f49423          	sh	a5,8(s1)
 144:	0109a583          	lw	a1,16(s3)
 148:	00045503          	lhu	a0,0(s0)
 14c:	00000097          	auipc	ra,0x0
 150:	000080e7          	jalr	ra,0(ra) # 14c <.LVL47+0x30>

00000154 <.LVL48>:
 154:	0b898223          	sb	s8,164(s3)
 158:	00045503          	lhu	a0,0(s0)
 15c:	85a6                	c.mv	a1,s1
 15e:	00000097          	auipc	ra,0x0
 162:	000080e7          	jalr	ra,0(ra) # 15e <.LVL48+0xa>

00000166 <.LVL49>:
 166:	6605                	c.lui	a2,0x1
 168:	85d6                	c.mv	a1,s5
 16a:	fa060613          	addi	a2,a2,-96 # fa0 <.LLST67+0x2>
 16e:	10200513          	addi	a0,zero,258
 172:	00000097          	auipc	ra,0x0
 176:	000080e7          	jalr	ra,0(ra) # 172 <.LVL49+0xc>

0000017a <.LVL50>:
 17a:	00045503          	lhu	a0,0(s0)
 17e:	4585                	c.li	a1,1
 180:	00000097          	auipc	ra,0x0
 184:	000080e7          	jalr	ra,0(ra) # 180 <.LVL50+0x6>

00000188 <.LVL51>:
 188:	bfa9                	c.j	e2 <.L21>

Disassembly of section .text.hci_le_ltk_req_neg_reply_cmd_handler:

00000000 <hci_le_ltk_req_neg_reply_cmd_handler>:
   0:	7179                	c.addi16sp	sp,-48
   2:	8532                	c.mv	a0,a2

00000004 <.LVL53>:
   4:	d422                	c.swsp	s0,40(sp)
   6:	d04a                	c.swsp	s2,32(sp)
   8:	ce4e                	c.swsp	s3,28(sp)
   a:	d606                	c.swsp	ra,44(sp)
   c:	89b6                	c.mv	s3,a3
   e:	d226                	c.swsp	s1,36(sp)
  10:	892e                	c.mv	s2,a1
  12:	c632                	c.swsp	a2,12(sp)
  14:	00000097          	auipc	ra,0x0
  18:	000080e7          	jalr	ra,0(ra) # 14 <.LVL53+0x10>

0000001c <.LBB148>:
  1c:	00f57693          	andi	a3,a0,15
  20:	473d                	c.li	a4,15
  22:	4431                	c.li	s0,12
  24:	04e68263          	beq	a3,a4,68 <.L33>
  28:	00257713          	andi	a4,a0,2
  2c:	87aa                	c.mv	a5,a0

0000002e <.LBB150>:
  2e:	cf0d                	c.beqz	a4,68 <.L33>
  30:	00095503          	lhu	a0,0(s2)

00000034 <.LVL56>:
  34:	000004b7          	lui	s1,0x0
  38:	00048713          	addi	a4,s1,0 # 0 <hci_le_ltk_req_neg_reply_cmd_handler>
  3c:	00251693          	slli	a3,a0,0x2
  40:	9736                	c.add	a4,a3
  42:	4318                	c.lw	a4,0(a4)
  44:	46a5                	c.li	a3,9
  46:	00048493          	addi	s1,s1,0
  4a:	0a474603          	lbu	a2,164(a4)
  4e:	45b2                	c.lwsp	a1,12(sp)
  50:	00d61c63          	bne	a2,a3,68 <.L33>
  54:	0a574403          	lbu	s0,165(a4)
  58:	8841                	c.andi	s0,16
  5a:	c41d                	c.beqz	s0,88 <.L34>
  5c:	4599                	c.li	a1,6
  5e:	00000097          	auipc	ra,0x0
  62:	000080e7          	jalr	ra,0(ra) # 5e <.LVL56+0x2a>

00000066 <.LVL57>:
  66:	4401                	c.li	s0,0

00000068 <.L33>:
  68:	00095603          	lhu	a2,0(s2)
  6c:	854e                	c.mv	a0,s3
  6e:	85a2                	c.mv	a1,s0
  70:	00000097          	auipc	ra,0x0
  74:	000080e7          	jalr	ra,0(ra) # 70 <.L33+0x8>

00000078 <.LVL59>:
  78:	50b2                	c.lwsp	ra,44(sp)
  7a:	5422                	c.lwsp	s0,40(sp)

0000007c <.LVL60>:
  7c:	5492                	c.lwsp	s1,36(sp)
  7e:	5902                	c.lwsp	s2,32(sp)

00000080 <.LVL61>:
  80:	49f2                	c.lwsp	s3,28(sp)
  82:	4501                	c.li	a0,0
  84:	6145                	c.addi16sp	sp,48
  86:	8082                	c.jr	ra

00000088 <.L34>:
  88:	8b85                	c.andi	a5,1
  8a:	cb91                	c.beqz	a5,9e <.L35>
  8c:	6605                	c.lui	a2,0x1
  8e:	fa060613          	addi	a2,a2,-96 # fa0 <.LLST67+0x2>
  92:	10200513          	addi	a0,zero,258
  96:	00000097          	auipc	ra,0x0
  9a:	000080e7          	jalr	ra,0(ra) # 96 <.L34+0xe>

0000009e <.L35>:
  9e:	00095783          	lhu	a5,0(s2)
  a2:	4735                	c.li	a4,13
  a4:	078a                	c.slli	a5,0x2
  a6:	97a6                	c.add	a5,s1
  a8:	439c                	c.lw	a5,0(a5)
  aa:	0ae78223          	sb	a4,164(a5)

000000ae <.LBB154>:
  ae:	300026f3          	csrrs	a3,mstatus,zero

000000b2 <.LBB156>:
  b2:	300477f3          	csrrci	a5,mstatus,8

000000b6 <.LBE156>:
  b6:	00095783          	lhu	a5,0(s2)
  ba:	078a                	c.slli	a5,0x2
  bc:	94be                	c.add	s1,a5
  be:	4098                	c.lw	a4,0(s1)
  c0:	0a574783          	lbu	a5,165(a4)
  c4:	9bdd                	c.andi	a5,-9
  c6:	0af702a3          	sb	a5,165(a4)
  ca:	30069073          	csrrw	zero,mstatus,a3

000000ce <.LBE154>:
  ce:	00095503          	lhu	a0,0(s2)
  d2:	4619                	c.li	a2,6
  d4:	458d                	c.li	a1,3
  d6:	00000097          	auipc	ra,0x0
  da:	000080e7          	jalr	ra,0(ra) # d6 <.LBE154+0x8>

000000de <.LVL66>:
  de:	b769                	c.j	68 <.L33>

Disassembly of section .text.hci_le_ltk_req_reply_cmd_handler:

00000000 <hci_le_ltk_req_reply_cmd_handler>:
   0:	7179                	c.addi16sp	sp,-48
   2:	8532                	c.mv	a0,a2

00000004 <.LVL68>:
   4:	d226                	c.swsp	s1,36(sp)
   6:	d04a                	c.swsp	s2,32(sp)
   8:	84ae                	c.mv	s1,a1
   a:	d606                	c.swsp	ra,44(sp)
   c:	d422                	c.swsp	s0,40(sp)
   e:	ce4e                	c.swsp	s3,28(sp)
  10:	cc52                	c.swsp	s4,24(sp)
  12:	8936                	c.mv	s2,a3
  14:	c632                	c.swsp	a2,12(sp)
  16:	00000097          	auipc	ra,0x0
  1a:	000080e7          	jalr	ra,0(ra) # 16 <.LVL68+0x12>

0000001e <.LBB157>:
  1e:	00f57713          	andi	a4,a0,15
  22:	47bd                	c.li	a5,15
  24:	45b1                	c.li	a1,12
  26:	06f70f63          	beq	a4,a5,a4 <.L45>

0000002a <.LBB159>:
  2a:	8909                	c.andi	a0,2

0000002c <.LVL71>:
  2c:	cd25                	c.beqz	a0,a4 <.L45>
  2e:	0004d783          	lhu	a5,0(s1)
  32:	00000437          	lui	s0,0x0
  36:	00040413          	addi	s0,s0,0 # 0 <hci_le_ltk_req_reply_cmd_handler>
  3a:	078a                	c.slli	a5,0x2
  3c:	97a2                	c.add	a5,s0
  3e:	439c                	c.lw	a5,0(a5)
  40:	4632                	c.lwsp	a2,12(sp)
  42:	0a47c703          	lbu	a4,164(a5)
  46:	47a5                	c.li	a5,9
  48:	04f71e63          	bne	a4,a5,a4 <.L45>

0000004c <.LBB161>:
  4c:	02000693          	addi	a3,zero,32
  50:	4581                	c.li	a1,0
  52:	4511                	c.li	a0,4
  54:	00000097          	auipc	ra,0x0
  58:	000080e7          	jalr	ra,0(ra) # 54 <.LBB161+0x8>

0000005c <.LVL72>:
  5c:	00000a37          	lui	s4,0x0
  60:	000a2783          	lw	a5,0(s4) # 0 <hci_le_ltk_req_reply_cmd_handler>
  64:	4641                	c.li	a2,16
  66:	00248593          	addi	a1,s1,2
  6a:	89aa                	c.mv	s3,a0

0000006c <.LVL73>:
  6c:	9782                	c.jalr	a5

0000006e <.LVL74>:
  6e:	0004d783          	lhu	a5,0(s1)
  72:	4641                	c.li	a2,16
  74:	01098513          	addi	a0,s3,16
  78:	078a                	c.slli	a5,0x2
  7a:	97a2                	c.add	a5,s0
  7c:	438c                	c.lw	a1,0(a5)
  7e:	000a2783          	lw	a5,0(s4)
  82:	07158593          	addi	a1,a1,113
  86:	9782                	c.jalr	a5

00000088 <.LVL75>:
  88:	854e                	c.mv	a0,s3
  8a:	00000097          	auipc	ra,0x0
  8e:	000080e7          	jalr	ra,0(ra) # 8a <.LVL75+0x2>

00000092 <.LVL76>:
  92:	0004d783          	lhu	a5,0(s1)
  96:	4729                	c.li	a4,10
  98:	4581                	c.li	a1,0
  9a:	078a                	c.slli	a5,0x2
  9c:	943e                	c.add	s0,a5
  9e:	401c                	c.lw	a5,0(s0)
  a0:	0ae78223          	sb	a4,164(a5)

000000a4 <.L45>:
  a4:	0004d603          	lhu	a2,0(s1)
  a8:	854a                	c.mv	a0,s2
  aa:	00000097          	auipc	ra,0x0
  ae:	000080e7          	jalr	ra,0(ra) # aa <.L45+0x6>

000000b2 <.LVL78>:
  b2:	50b2                	c.lwsp	ra,44(sp)
  b4:	5422                	c.lwsp	s0,40(sp)
  b6:	5492                	c.lwsp	s1,36(sp)

000000b8 <.LVL79>:
  b8:	5902                	c.lwsp	s2,32(sp)
  ba:	49f2                	c.lwsp	s3,28(sp)
  bc:	4a62                	c.lwsp	s4,24(sp)
  be:	4501                	c.li	a0,0
  c0:	6145                	c.addi16sp	sp,48
  c2:	8082                	c.jr	ra

Disassembly of section .text.hci_disconnect_cmd_handler:

00000000 <hci_disconnect_cmd_handler>:
   0:	1101                	c.addi	sp,-32
   2:	8532                	c.mv	a0,a2

00000004 <.LVL81>:
   4:	ca26                	c.swsp	s1,20(sp)
   6:	c84a                	c.swsp	s2,16(sp)
   8:	84ae                	c.mv	s1,a1
   a:	ce06                	c.swsp	ra,28(sp)
   c:	cc22                	c.swsp	s0,24(sp)
   e:	8936                	c.mv	s2,a3
  10:	00000097          	auipc	ra,0x0
  14:	000080e7          	jalr	ra,0(ra) # 10 <.LVL81+0xc>

00000018 <.LBB162>:
  18:	893d                	c.andi	a0,15

0000001a <.LVL83>:
  1a:	47bd                	c.li	a5,15
  1c:	45b1                	c.li	a1,12
  1e:	04f50663          	beq	a0,a5,6a <.L52>

00000022 <.LBB164>:
  22:	151417b7          	lui	a5,0x15141
  26:	30578793          	addi	a5,a5,773 # 15141305 <.LASF1021+0x1513b427>
  2a:	c43e                	c.swsp	a5,8(sp)
  2c:	678d                	c.lui	a5,0x3
  2e:	91a78793          	addi	a5,a5,-1766 # 291a <.LASF974+0x9>

00000032 <.LBE164>:
  32:	0024c583          	lbu	a1,2(s1)

00000036 <.LBB169>:
  36:	00f11623          	sh	a5,12(sp)
  3a:	03b00793          	addi	a5,zero,59
  3e:	00f10723          	sb	a5,14(sp)

00000042 <.LBB166>:
  42:	471d                	c.li	a4,7

00000044 <.LBE166>:
  44:	4781                	c.li	a5,0

00000046 <.L54>:
  46:	0034                	c.addi4spn	a3,sp,8
  48:	96be                	c.add	a3,a5
  4a:	0006c683          	lbu	a3,0(a3)
  4e:	00b68763          	beq	a3,a1,5c <.L53>

00000052 <.LVL87>:
  52:	0785                	c.addi	a5,1

00000054 <.LVL88>:
  54:	fee799e3          	bne	a5,a4,46 <.L54>

00000058 <.LBE167>:
  58:	45c9                	c.li	a1,18
  5a:	a801                	c.j	6a <.L52>

0000005c <.L53>:
  5c:	0004d503          	lhu	a0,0(s1)
  60:	00000097          	auipc	ra,0x0
  64:	000080e7          	jalr	ra,0(ra) # 60 <.L53+0x4>

00000068 <.LVL91>:
  68:	4581                	c.li	a1,0

0000006a <.L52>:
  6a:	0004d603          	lhu	a2,0(s1)
  6e:	00000437          	lui	s0,0x0
  72:	00040793          	addi	a5,s0,0 # 0 <hci_disconnect_cmd_handler>
  76:	00261713          	slli	a4,a2,0x2
  7a:	97ba                	c.add	a5,a4
  7c:	439c                	c.lw	a5,0(a5)
  7e:	00040413          	addi	s0,s0,0
  82:	0a27c783          	lbu	a5,162(a5)
  86:	ef91                	c.bnez	a5,a2 <.L56>
  88:	854a                	c.mv	a0,s2
  8a:	00000097          	auipc	ra,0x0
  8e:	000080e7          	jalr	ra,0(ra) # 8a <.L52+0x20>

00000092 <.LVL93>:
  92:	0004d783          	lhu	a5,0(s1)
  96:	4705                	c.li	a4,1
  98:	078a                	c.slli	a5,0x2
  9a:	97a2                	c.add	a5,s0
  9c:	439c                	c.lw	a5,0(a5)
  9e:	0ae78123          	sb	a4,162(a5)

000000a2 <.L56>:
  a2:	0004d783          	lhu	a5,0(s1)
  a6:	4501                	c.li	a0,0
  a8:	078a                	c.slli	a5,0x2
  aa:	943e                	c.add	s0,a5
  ac:	401c                	c.lw	a5,0(s0)
  ae:	0a078123          	sb	zero,162(a5)
  b2:	40f2                	c.lwsp	ra,28(sp)
  b4:	4462                	c.lwsp	s0,24(sp)
  b6:	44d2                	c.lwsp	s1,20(sp)

000000b8 <.LVL94>:
  b8:	4942                	c.lwsp	s2,16(sp)
  ba:	6105                	c.addi16sp	sp,32
  bc:	8082                	c.jr	ra

Disassembly of section .text.hci_le_start_enc_cmd_handler:

00000000 <hci_le_start_enc_cmd_handler>:
   0:	1101                	c.addi	sp,-32
   2:	8532                	c.mv	a0,a2

00000004 <.LVL96>:
   4:	c64e                	c.swsp	s3,12(sp)
   6:	c452                	c.swsp	s4,8(sp)
   8:	c256                	c.swsp	s5,4(sp)
   a:	ce06                	c.swsp	ra,28(sp)
   c:	cc22                	c.swsp	s0,24(sp)
   e:	ca26                	c.swsp	s1,20(sp)
  10:	c84a                	c.swsp	s2,16(sp)
  12:	8a2e                	c.mv	s4,a1
  14:	89b2                	c.mv	s3,a2
  16:	8ab6                	c.mv	s5,a3
  18:	00000097          	auipc	ra,0x0
  1c:	000080e7          	jalr	ra,0(ra) # 18 <.LVL96+0x14>

00000020 <.LBB170>:
  20:	00f57713          	andi	a4,a0,15
  24:	47bd                	c.li	a5,15
  26:	00f71663          	bne	a4,a5,32 <.L63>
  2a:	000a5603          	lhu	a2,0(s4)

0000002e <.L66>:
  2e:	45b1                	c.li	a1,12
  30:	a809                	c.j	42 <.L72>

00000032 <.L63>:
  32:	00457793          	andi	a5,a0,4
  36:	892a                	c.mv	s2,a0

00000038 <.LBB172>:
  38:	c785                	c.beqz	a5,60 <.L65>
  3a:	000a5603          	lhu	a2,0(s4)
  3e:	03a00593          	addi	a1,zero,58

00000042 <.L72>:
  42:	8556                	c.mv	a0,s5
  44:	00000097          	auipc	ra,0x0
  48:	000080e7          	jalr	ra,0(ra) # 44 <.L72+0x2>

0000004c <.LVL102>:
  4c:	4501                	c.li	a0,0

0000004e <.L62>:
  4e:	40f2                	c.lwsp	ra,28(sp)
  50:	4462                	c.lwsp	s0,24(sp)
  52:	44d2                	c.lwsp	s1,20(sp)
  54:	4942                	c.lwsp	s2,16(sp)
  56:	49b2                	c.lwsp	s3,12(sp)
  58:	4a22                	c.lwsp	s4,8(sp)

0000005a <.LVL104>:
  5a:	4a92                	c.lwsp	s5,4(sp)
  5c:	6105                	c.addi16sp	sp,32
  5e:	8082                	c.jr	ra

00000060 <.L65>:
  60:	00157793          	andi	a5,a0,1
  64:	4509                	c.li	a0,2

00000066 <.LVL106>:
  66:	f7e5                	c.bnez	a5,4e <.L62>
  68:	0089d493          	srli	s1,s3,0x8
  6c:	8526                	c.mv	a0,s1
  6e:	00000097          	auipc	ra,0x0
  72:	000080e7          	jalr	ra,0(ra) # 6e <.LVL106+0x8>

00000076 <.LVL107>:
  76:	478d                	c.li	a5,3
  78:	000a5603          	lhu	a2,0(s4)
  7c:	faf519e3          	bne	a0,a5,2e <.L66>
  80:	00000437          	lui	s0,0x0
  84:	00040793          	addi	a5,s0,0 # 0 <hci_le_start_enc_cmd_handler>
  88:	00261713          	slli	a4,a2,0x2
  8c:	97ba                	c.add	a5,a4
  8e:	439c                	c.lw	a5,0(a5)
  90:	00040413          	addi	s0,s0,0
  94:	0697c783          	lbu	a5,105(a5)
  98:	8b85                	c.andi	a5,1
  9a:	dbd1                	c.beqz	a5,2e <.L66>

0000009c <.LBB176>:
  9c:	8556                	c.mv	a0,s5
  9e:	4581                	c.li	a1,0
  a0:	00000097          	auipc	ra,0x0
  a4:	000080e7          	jalr	ra,0(ra) # a0 <.LBB176+0x4>

000000a8 <.LBB177>:
  a8:	00196593          	ori	a1,s2,1
  ac:	854e                	c.mv	a0,s3
  ae:	0ff5f593          	andi	a1,a1,255
  b2:	00000097          	auipc	ra,0x0
  b6:	000080e7          	jalr	ra,0(ra) # b2 <.LBB177+0xa>

000000ba <.LBB179>:
  ba:	00596593          	ori	a1,s2,5
  be:	0ff5f593          	andi	a1,a1,255
  c2:	854e                	c.mv	a0,s3

000000c4 <.LBE179>:
  c4:	048a                	c.slli	s1,0x2

000000c6 <.LBB182>:
  c6:	00000097          	auipc	ra,0x0
  ca:	000080e7          	jalr	ra,0(ra) # c6 <.LBB182>

000000ce <.LBE182>:
  ce:	94a2                	c.add	s1,s0
  d0:	409c                	c.lw	a5,0(s1)
  d2:	4729                	c.li	a4,10
  d4:	0ae781a3          	sb	a4,163(a5)

000000d8 <.LBB183>:
  d8:	30002973          	csrrs	s2,mstatus,zero

000000dc <.LBB185>:
  dc:	30047773          	csrrci	a4,mstatus,8

000000e0 <.LBE185>:
  e0:	0a57c703          	lbu	a4,165(a5)
  e4:	4b88                	c.lw	a0,16(a5)
  e6:	00476713          	ori	a4,a4,4
  ea:	0ae782a3          	sb	a4,165(a5)
  ee:	00000097          	auipc	ra,0x0
  f2:	000080e7          	jalr	ra,0(ra) # ee <.LBE185+0xe>

000000f6 <.LVL113>:
  f6:	30091073          	csrrw	zero,mstatus,s2

000000fa <.LBE183>:
  fa:	c10d                	c.beqz	a0,11c <.L68>
  fc:	4098                	c.lw	a4,0(s1)
  fe:	05c75783          	lhu	a5,92(a4)
 102:	0047e793          	ori	a5,a5,4
 106:	04f71e23          	sh	a5,92(a4)

0000010a <.L69>:
 10a:	000a5783          	lhu	a5,0(s4)

0000010e <.LBE186>:
 10e:	4505                	c.li	a0,1

00000110 <.LBB189>:
 110:	078a                	c.slli	a5,0x2
 112:	943e                	c.add	s0,a5
 114:	401c                	c.lw	a5,0(s0)

00000116 <.LVL115>:
 116:	0147a423          	sw	s4,8(a5)

0000011a <.LBE189>:
 11a:	bf15                	c.j	4e <.L62>

0000011c <.L68>:
 11c:	864e                	c.mv	a2,s3
 11e:	85ce                	c.mv	a1,s3
 120:	10600513          	addi	a0,zero,262

00000124 <.LVL118>:
 124:	00000097          	auipc	ra,0x0
 128:	000080e7          	jalr	ra,0(ra) # 124 <.LVL118>

0000012c <.LVL119>:
 12c:	bff9                	c.j	10a <.L69>

Disassembly of section .text.hci_le_rd_rem_used_feats_cmd_handler:

00000000 <hci_le_rd_rem_used_feats_cmd_handler>:
   0:	1101                	c.addi	sp,-32
   2:	8532                	c.mv	a0,a2

00000004 <.LVL121>:
   4:	cc22                	c.swsp	s0,24(sp)
   6:	ca26                	c.swsp	s1,20(sp)
   8:	c64e                	c.swsp	s3,12(sp)
   a:	c452                	c.swsp	s4,8(sp)
   c:	ce06                	c.swsp	ra,28(sp)
   e:	c84a                	c.swsp	s2,16(sp)
  10:	c256                	c.swsp	s5,4(sp)
  12:	84ae                	c.mv	s1,a1
  14:	89b2                	c.mv	s3,a2
  16:	8a36                	c.mv	s4,a3
  18:	00000097          	auipc	ra,0x0
  1c:	000080e7          	jalr	ra,0(ra) # 18 <.LVL121+0x14>

00000020 <.LBB190>:
  20:	00000437          	lui	s0,0x0

00000024 <.LBE190>:
  24:	00f57713          	andi	a4,a0,15
  28:	47bd                	c.li	a5,15
  2a:	00040413          	addi	s0,s0,0 # 0 <hci_le_rd_rem_used_feats_cmd_handler>
  2e:	0af70563          	beq	a4,a5,d8 <.L76>
  32:	0004d783          	lhu	a5,0(s1)
  36:	078a                	c.slli	a5,0x2
  38:	97a2                	c.add	a5,s0
  3a:	439c                	c.lw	a5,0(a5)
  3c:	05c7d783          	lhu	a5,92(a5)
  40:	8b85                	c.andi	a5,1
  42:	efc9                	c.bnez	a5,dc <.L77>
  44:	00557913          	andi	s2,a0,5
  48:	4a89                	c.li	s5,2
  4a:	06091d63          	bne	s2,zero,c4 <.L73>

0000004e <.LBB192>:
  4e:	00156593          	ori	a1,a0,1
  52:	0ff5f593          	andi	a1,a1,255
  56:	854e                	c.mv	a0,s3

00000058 <.LVL125>:
  58:	00000097          	auipc	ra,0x0
  5c:	000080e7          	jalr	ra,0(ra) # 58 <.LVL125>

00000060 <.LBE192>:
  60:	0004d783          	lhu	a5,0(s1)
  64:	4705                	c.li	a4,1
  66:	078a                	c.slli	a5,0x2
  68:	97a2                	c.add	a5,s0
  6a:	439c                	c.lw	a5,0(a5)
  6c:	0ae781a3          	sb	a4,163(a5)
  70:	0004d503          	lhu	a0,0(s1)
  74:	00000097          	auipc	ra,0x0
  78:	000080e7          	jalr	ra,0(ra) # 74 <.LBE192+0x14>

0000007c <.LVL127>:
  7c:	6605                	c.lui	a2,0x1
  7e:	fa060613          	addi	a2,a2,-96 # fa0 <.LLST67+0x2>
  82:	85ce                	c.mv	a1,s3
  84:	10200513          	addi	a0,zero,258
  88:	00000097          	auipc	ra,0x0
  8c:	000080e7          	jalr	ra,0(ra) # 88 <.LVL127+0xc>

00000090 <.L74>:
  90:	0004d603          	lhu	a2,0(s1)
  94:	85ca                	c.mv	a1,s2
  96:	8552                	c.mv	a0,s4
  98:	00000097          	auipc	ra,0x0
  9c:	000080e7          	jalr	ra,0(ra) # 98 <.L74+0x8>

000000a0 <.LVL129>:
  a0:	0004d583          	lhu	a1,0(s1)
  a4:	4a81                	c.li	s5,0
  a6:	00259793          	slli	a5,a1,0x2
  aa:	943e                	c.add	s0,a5
  ac:	4010                	c.lw	a2,0(s0)
  ae:	05c65783          	lhu	a5,92(a2)
  b2:	8b85                	c.andi	a5,1
  b4:	cb81                	c.beqz	a5,c4 <.L73>
  b6:	06960613          	addi	a2,a2,105
  ba:	4501                	c.li	a0,0
  bc:	00000097          	auipc	ra,0x0
  c0:	000080e7          	jalr	ra,0(ra) # bc <.LVL129+0x1c>

000000c4 <.L73>:
  c4:	40f2                	c.lwsp	ra,28(sp)
  c6:	4462                	c.lwsp	s0,24(sp)
  c8:	8556                	c.mv	a0,s5
  ca:	44d2                	c.lwsp	s1,20(sp)

000000cc <.LVL131>:
  cc:	4942                	c.lwsp	s2,16(sp)
  ce:	49b2                	c.lwsp	s3,12(sp)
  d0:	4a22                	c.lwsp	s4,8(sp)
  d2:	4a92                	c.lwsp	s5,4(sp)
  d4:	6105                	c.addi16sp	sp,32
  d6:	8082                	c.jr	ra

000000d8 <.L76>:
  d8:	4931                	c.li	s2,12
  da:	bf5d                	c.j	90 <.L74>

000000dc <.L77>:
  dc:	4901                	c.li	s2,0
  de:	bf4d                	c.j	90 <.L74>

Disassembly of section .text.hci_le_rd_chnl_map_cmd_handler:

00000000 <hci_le_rd_chnl_map_cmd_handler>:
   0:	1141                	c.addi	sp,-16
   2:	c606                	c.swsp	ra,12(sp)
   4:	c422                	c.swsp	s0,8(sp)
   6:	c226                	c.swsp	s1,4(sp)
   8:	c04a                	c.swsp	s2,0(sp)
   a:	84ae                	c.mv	s1,a1
   c:	0005d583          	lhu	a1,0(a1)

00000010 <.LVL134>:
  10:	8932                	c.mv	s2,a2
  12:	6505                	c.lui	a0,0x1

00000014 <.LVL135>:
  14:	6609                	c.lui	a2,0x2

00000016 <.LVL136>:
  16:	46a9                	c.li	a3,10

00000018 <.LVL137>:
  18:	0655                	c.addi	a2,21
  1a:	80150513          	addi	a0,a0,-2047 # 801 <.LASF797+0xa>
  1e:	00000097          	auipc	ra,0x0
  22:	000080e7          	jalr	ra,0(ra) # 1e <.LVL137+0x6>

00000026 <.LVL138>:
  26:	842a                	c.mv	s0,a0

00000028 <.LVL139>:
  28:	854a                	c.mv	a0,s2
  2a:	00000097          	auipc	ra,0x0
  2e:	000080e7          	jalr	ra,0(ra) # 2a <.LVL139+0x2>

00000032 <.LBB194>:
  32:	893d                	c.andi	a0,15

00000034 <.LVL141>:
  34:	473d                	c.li	a4,15
  36:	47b1                	c.li	a5,12
  38:	02e50663          	beq	a0,a4,64 <.L83>
  3c:	0004d703          	lhu	a4,0(s1)
  40:	000007b7          	lui	a5,0x0
  44:	00078793          	addi	a5,a5,0 # 0 <hci_le_rd_chnl_map_cmd_handler>
  48:	070a                	c.slli	a4,0x2
  4a:	97ba                	c.add	a5,a4
  4c:	438c                	c.lw	a1,0(a5)
  4e:	000007b7          	lui	a5,0x0
  52:	0007a783          	lw	a5,0(a5) # 0 <hci_le_rd_chnl_map_cmd_handler>
  56:	4615                	c.li	a2,5
  58:	05e58593          	addi	a1,a1,94
  5c:	00440513          	addi	a0,s0,4
  60:	9782                	c.jalr	a5

00000062 <.LVL142>:
  62:	4781                	c.li	a5,0

00000064 <.L83>:
  64:	00f40023          	sb	a5,0(s0)
  68:	0004d783          	lhu	a5,0(s1)

0000006c <.LVL144>:
  6c:	8522                	c.mv	a0,s0
  6e:	00f41123          	sh	a5,2(s0)
  72:	00000097          	auipc	ra,0x0
  76:	000080e7          	jalr	ra,0(ra) # 72 <.LVL144+0x6>

0000007a <.LVL145>:
  7a:	40b2                	c.lwsp	ra,12(sp)
  7c:	4422                	c.lwsp	s0,8(sp)

0000007e <.LVL146>:
  7e:	4492                	c.lwsp	s1,4(sp)

00000080 <.LVL147>:
  80:	4902                	c.lwsp	s2,0(sp)
  82:	4501                	c.li	a0,0
  84:	0141                	c.addi	sp,16
  86:	8082                	c.jr	ra

Disassembly of section .text.hci_rd_auth_payl_to_cmd_handler:

00000000 <hci_rd_auth_payl_to_cmd_handler>:
   0:	1141                	c.addi	sp,-16
   2:	8532                	c.mv	a0,a2

00000004 <.LVL149>:
   4:	c606                	c.swsp	ra,12(sp)
   6:	c422                	c.swsp	s0,8(sp)
   8:	c226                	c.swsp	s1,4(sp)
   a:	c04a                	c.swsp	s2,0(sp)
   c:	8432                	c.mv	s0,a2
   e:	892e                	c.mv	s2,a1
  10:	00000097          	auipc	ra,0x0
  14:	000080e7          	jalr	ra,0(ra) # 10 <.LVL149+0xc>

00000018 <.LVL150>:
  18:	00095583          	lhu	a1,0(s2)
  1c:	84aa                	c.mv	s1,a0

0000001e <.LVL151>:
  1e:	6505                	c.lui	a0,0x1
  20:	c7b50613          	addi	a2,a0,-901 # c7b <.LASF83+0xd>
  24:	4699                	c.li	a3,6
  26:	80150513          	addi	a0,a0,-2047
  2a:	00000097          	auipc	ra,0x0
  2e:	000080e7          	jalr	ra,0(ra) # 2a <.LVL151+0xc>

00000032 <.LBB196>:
  32:	88bd                	c.andi	s1,15

00000034 <.LVL153>:
  34:	47bd                	c.li	a5,15
  36:	02f49463          	bne	s1,a5,5e <.L88>
  3a:	47b1                	c.li	a5,12
  3c:	00f50023          	sb	a5,0(a0)

00000040 <.L89>:
  40:	00095783          	lhu	a5,0(s2)
  44:	00f51123          	sh	a5,2(a0)
  48:	00000097          	auipc	ra,0x0
  4c:	000080e7          	jalr	ra,0(ra) # 48 <.L89+0x8>

00000050 <.LVL155>:
  50:	40b2                	c.lwsp	ra,12(sp)
  52:	4422                	c.lwsp	s0,8(sp)
  54:	4492                	c.lwsp	s1,4(sp)
  56:	4902                	c.lwsp	s2,0(sp)

00000058 <.LVL156>:
  58:	4501                	c.li	a0,0
  5a:	0141                	c.addi	sp,16
  5c:	8082                	c.jr	ra

0000005e <.L88>:
  5e:	000007b7          	lui	a5,0x0
  62:	8021                	c.srli	s0,0x8

00000064 <.LVL158>:
  64:	00078793          	addi	a5,a5,0 # 0 <hci_rd_auth_payl_to_cmd_handler>
  68:	040a                	c.slli	s0,0x2
  6a:	00050023          	sb	zero,0(a0)
  6e:	943e                	c.add	s0,a5
  70:	401c                	c.lw	a5,0(s0)
  72:	0587d783          	lhu	a5,88(a5)
  76:	00f51223          	sh	a5,4(a0)
  7a:	b7d9                	c.j	40 <.L89>

Disassembly of section .text.hci_rd_rssi_cmd_handler:

00000000 <hci_rd_rssi_cmd_handler>:
   0:	1141                	c.addi	sp,-16
   2:	c606                	c.swsp	ra,12(sp)
   4:	c422                	c.swsp	s0,8(sp)
   6:	c226                	c.swsp	s1,4(sp)
   8:	c04a                	c.swsp	s2,0(sp)
   a:	84ae                	c.mv	s1,a1
   c:	0005d583          	lhu	a1,0(a1)

00000010 <.LVL160>:
  10:	6505                	c.lui	a0,0x1

00000012 <.LVL161>:
  12:	8932                	c.mv	s2,a2
  14:	4699                	c.li	a3,6

00000016 <.LVL162>:
  16:	40550613          	addi	a2,a0,1029 # 1405 <.LLST124+0x17>

0000001a <.LVL163>:
  1a:	80150513          	addi	a0,a0,-2047
  1e:	00000097          	auipc	ra,0x0
  22:	000080e7          	jalr	ra,0(ra) # 1e <.LVL163+0x4>

00000026 <.LVL164>:
  26:	842a                	c.mv	s0,a0

00000028 <.LVL165>:
  28:	854a                	c.mv	a0,s2
  2a:	00000097          	auipc	ra,0x0
  2e:	000080e7          	jalr	ra,0(ra) # 2a <.LVL165+0x2>

00000032 <.LBB198>:
  32:	893d                	c.andi	a0,15

00000034 <.LVL167>:
  34:	47bd                	c.li	a5,15
  36:	02f51763          	bne	a0,a5,64 <.L92>
  3a:	47b1                	c.li	a5,12
  3c:	00f40023          	sb	a5,0(s0)
  40:	00040223          	sb	zero,4(s0)

00000044 <.L93>:
  44:	0004d783          	lhu	a5,0(s1)
  48:	8522                	c.mv	a0,s0
  4a:	00f41123          	sh	a5,2(s0)
  4e:	00000097          	auipc	ra,0x0
  52:	000080e7          	jalr	ra,0(ra) # 4e <.L93+0xa>

00000056 <.LVL168>:
  56:	40b2                	c.lwsp	ra,12(sp)
  58:	4422                	c.lwsp	s0,8(sp)

0000005a <.LVL169>:
  5a:	4492                	c.lwsp	s1,4(sp)

0000005c <.LVL170>:
  5c:	4902                	c.lwsp	s2,0(sp)
  5e:	4501                	c.li	a0,0
  60:	0141                	c.addi	sp,16
  62:	8082                	c.jr	ra

00000064 <.L92>:
  64:	00040023          	sb	zero,0(s0)
  68:	0004d703          	lhu	a4,0(s1)
  6c:	000007b7          	lui	a5,0x0
  70:	00078793          	addi	a5,a5,0 # 0 <hci_rd_rssi_cmd_handler>
  74:	070a                	c.slli	a4,0x2
  76:	97ba                	c.add	a5,a4
  78:	439c                	c.lw	a5,0(a5)
  7a:	06878783          	lb	a5,104(a5)
  7e:	00f40223          	sb	a5,4(s0)
  82:	b7c9                	c.j	44 <.L93>

Disassembly of section .text.hci_rd_tx_pwr_lvl_cmd_handler:

00000000 <hci_rd_tx_pwr_lvl_cmd_handler>:
   0:	1141                	c.addi	sp,-16
   2:	c606                	c.swsp	ra,12(sp)
   4:	c422                	c.swsp	s0,8(sp)
   6:	c226                	c.swsp	s1,4(sp)
   8:	c04a                	c.swsp	s2,0(sp)
   a:	84ae                	c.mv	s1,a1
   c:	0005d583          	lhu	a1,0(a1)

00000010 <.LVL173>:
  10:	6505                	c.lui	a0,0x1

00000012 <.LVL174>:
  12:	8932                	c.mv	s2,a2
  14:	4699                	c.li	a3,6

00000016 <.LVL175>:
  16:	c2d50613          	addi	a2,a0,-979 # c2d <.LASF445+0xb>

0000001a <.LVL176>:
  1a:	80150513          	addi	a0,a0,-2047
  1e:	00000097          	auipc	ra,0x0
  22:	000080e7          	jalr	ra,0(ra) # 1e <.LVL176+0x4>

00000026 <.LVL177>:
  26:	842a                	c.mv	s0,a0

00000028 <.LVL178>:
  28:	854a                	c.mv	a0,s2
  2a:	00000097          	auipc	ra,0x0
  2e:	000080e7          	jalr	ra,0(ra) # 2a <.LVL178+0x2>

00000032 <.LBB200>:
  32:	893d                	c.andi	a0,15

00000034 <.LVL180>:
  34:	47bd                	c.li	a5,15
  36:	00f51863          	bne	a0,a5,46 <.L96>
  3a:	47b1                	c.li	a5,12

0000003c <.L103>:
  3c:	00f40023          	sb	a5,0(s0)
  40:	00040223          	sb	zero,4(s0)
  44:	a091                	c.j	88 <.L97>

00000046 <.L96>:
  46:	00040023          	sb	zero,0(s0)
  4a:	0024c783          	lbu	a5,2(s1)
  4e:	c791                	c.beqz	a5,5a <.L98>
  50:	4705                	c.li	a4,1
  52:	04e78b63          	beq	a5,a4,a8 <.L99>
  56:	47c9                	c.li	a5,18
  58:	b7d5                	c.j	3c <.L103>

0000005a <.L98>:
  5a:	0004d783          	lhu	a5,0(s1)

0000005e <.LBB206>:
  5e:	05c00713          	addi	a4,zero,92

00000062 <.LBE206>:
  62:	4585                	c.li	a1,1

00000064 <.LBB207>:
  64:	02e787b3          	mul	a5,a5,a4

00000068 <.LVL183>:
  68:	28008737          	lui	a4,0x28008
  6c:	0a070713          	addi	a4,a4,160 # 280080a0 <.LASF1021+0x280021c2>
  70:	97ba                	c.add	a5,a4
  72:	0007d503          	lhu	a0,0(a5)

00000076 <.LBE207>:
  76:	000007b7          	lui	a5,0x0
  7a:	0147a783          	lw	a5,20(a5) # 14 <.LVL174+0x2>
  7e:	0ff57513          	andi	a0,a0,255
  82:	9782                	c.jalr	a5

00000084 <.L104>:
  84:	00a40223          	sb	a0,4(s0)

00000088 <.L97>:
  88:	0004d783          	lhu	a5,0(s1)
  8c:	8522                	c.mv	a0,s0
  8e:	00f41123          	sh	a5,2(s0)
  92:	00000097          	auipc	ra,0x0
  96:	000080e7          	jalr	ra,0(ra) # 92 <.L97+0xa>

0000009a <.LVL186>:
  9a:	40b2                	c.lwsp	ra,12(sp)
  9c:	4422                	c.lwsp	s0,8(sp)

0000009e <.LVL187>:
  9e:	4492                	c.lwsp	s1,4(sp)

000000a0 <.LVL188>:
  a0:	4902                	c.lwsp	s2,0(sp)
  a2:	4501                	c.li	a0,0
  a4:	0141                	c.addi	sp,16
  a6:	8082                	c.jr	ra

000000a8 <.L99>:
  a8:	000007b7          	lui	a5,0x0
  ac:	00078793          	addi	a5,a5,0 # 0 <hci_rd_tx_pwr_lvl_cmd_handler>
  b0:	4bd8                	c.lw	a4,20(a5)
  b2:	02c7c503          	lbu	a0,44(a5)
  b6:	4585                	c.li	a1,1
  b8:	9702                	c.jalr	a4

000000ba <.LVL190>:
  ba:	b7e9                	c.j	84 <.L104>

Disassembly of section .text.hci_le_con_update_cmd_handler:

00000000 <hci_le_con_update_cmd_handler>:
   0:	7179                	c.addi16sp	sp,-48
   2:	8532                	c.mv	a0,a2

00000004 <.LVL192>:
   4:	d422                	c.swsp	s0,40(sp)
   6:	ce4e                	c.swsp	s3,28(sp)
   8:	d606                	c.swsp	ra,44(sp)
   a:	d226                	c.swsp	s1,36(sp)
   c:	d04a                	c.swsp	s2,32(sp)
   e:	cc52                	c.swsp	s4,24(sp)
  10:	ca56                	c.swsp	s5,20(sp)
  12:	842e                	c.mv	s0,a1
  14:	89b6                	c.mv	s3,a3
  16:	c632                	c.swsp	a2,12(sp)
  18:	00000097          	auipc	ra,0x0
  1c:	000080e7          	jalr	ra,0(ra) # 18 <.LVL192+0x14>

00000020 <.LBB208>:
  20:	893d                	c.andi	a0,15

00000022 <.LVL194>:
  22:	47bd                	c.li	a5,15
  24:	12f50b63          	beq	a0,a5,15a <.L111>
  28:	00045503          	lhu	a0,0(s0)
  2c:	000007b7          	lui	a5,0x0
  30:	00078793          	addi	a5,a5,0 # 0 <hci_le_con_update_cmd_handler>
  34:	00251713          	slli	a4,a0,0x2
  38:	97ba                	c.add	a5,a4
  3a:	0007a903          	lw	s2,0(a5)
  3e:	01092a83          	lw	s5,16(s2)
  42:	00000097          	auipc	ra,0x0
  46:	000080e7          	jalr	ra,0(ra) # 42 <.LVL194+0x20>

0000004a <.LVL195>:
  4a:	4791                	c.li	a5,4
  4c:	028a8a13          	addi	s4,s5,40

00000050 <.LVL196>:
  50:	4632                	c.lwsp	a2,12(sp)
  52:	00f51f63          	bne	a0,a5,70 <.L107>
  56:	05c95783          	lhu	a5,92(s2)
  5a:	8b85                	c.andi	a5,1
  5c:	c791                	c.beqz	a5,68 <.L108>
  5e:	06994583          	lbu	a1,105(s2)
  62:	44e9                	c.li	s1,26
  64:	8989                	c.andi	a1,2
  66:	cdf5                	c.beqz	a1,162 <.L106>

00000068 <.L108>:
  68:	0a694783          	lbu	a5,166(s2)
  6c:	12078e63          	beq	a5,zero,1a8 <.L113>

00000070 <.L107>:
  70:	00245503          	lhu	a0,2(s0)
  74:	00445703          	lhu	a4,4(s0)
  78:	12a76a63          	bltu	a4,a0,1ac <.L120>
  7c:	00a45303          	lhu	t1,10(s0)
  80:	00c45883          	lhu	a7,12(s0)
  84:	1268e463          	bltu	a7,t1,1ac <.L120>
  88:	6785                	c.lui	a5,0x1
  8a:	c8078693          	addi	a3,a5,-896 # c80 <.LLST30+0x2>
  8e:	10e6ef63          	bltu	a3,a4,1ac <.L120>
  92:	4695                	c.li	a3,5
  94:	10a6fc63          	bgeu	a3,a0,1ac <.L120>
  98:	00645683          	lhu	a3,6(s0)
  9c:	1f300593          	addi	a1,zero,499
  a0:	10d5e663          	bltu	a1,a3,1ac <.L120>
  a4:	00845583          	lhu	a1,8(s0)
  a8:	c7678793          	addi	a5,a5,-906
  ac:	ff658813          	addi	a6,a1,-10
  b0:	0842                	c.slli	a6,0x10
  b2:	01085813          	srli	a6,a6,0x10
  b6:	0f07eb63          	bltu	a5,a6,1ac <.L120>
  ba:	00168793          	addi	a5,a3,1
  be:	02e787b3          	mul	a5,a5,a4
  c2:	00259813          	slli	a6,a1,0x2
  c6:	0f07f363          	bgeu	a5,a6,1ac <.L120>
  ca:	078ad783          	lhu	a5,120(s5)
  ce:	8385                	c.srli	a5,0x1
  d0:	02a7ea63          	bltu	a5,a0,104 <.L109>
  d4:	02f76863          	bltu	a4,a5,104 <.L109>
  d8:	01092783          	lw	a5,16(s2)
  dc:	4e200713          	addi	a4,zero,1250
  e0:	0127d783          	lhu	a5,18(a5)
  e4:	02e7d7b3          	divu	a5,a5,a4
  e8:	0067ee63          	bltu	a5,t1,104 <.L109>
  ec:	00f8ec63          	bltu	a7,a5,104 <.L109>
  f0:	05495783          	lhu	a5,84(s2)
  f4:	00b79863          	bne	a5,a1,104 <.L109>
  f8:	05ead783          	lhu	a5,94(s5)
  fc:	4481                	c.li	s1,0
  fe:	17fd                	c.addi	a5,-1
 100:	04d78b63          	beq	a5,a3,156 <.L130>

00000104 <.L109>:
 104:	02200693          	addi	a3,zero,34
 108:	85b2                	c.mv	a1,a2
 10a:	10900513          	addi	a0,zero,265
 10e:	00000097          	auipc	ra,0x0
 112:	000080e7          	jalr	ra,0(ra) # 10e <.L109+0xa>

00000116 <.LVL197>:
 116:	00050023          	sb	zero,0(a0)
 11a:	00245703          	lhu	a4,2(s0)

0000011e <.LBE210>:
 11e:	0ff00493          	addi	s1,zero,255

00000122 <.LBB211>:
 122:	00e51123          	sh	a4,2(a0)
 126:	00445703          	lhu	a4,4(s0)
 12a:	00e51223          	sh	a4,4(a0)
 12e:	00645703          	lhu	a4,6(s0)
 132:	00e51323          	sh	a4,6(a0)
 136:	00845703          	lhu	a4,8(s0)
 13a:	00e51423          	sh	a4,8(a0)
 13e:	00a45703          	lhu	a4,10(s0)
 142:	00e51523          	sh	a4,10(a0)
 146:	00c45703          	lhu	a4,12(s0)
 14a:	00e51623          	sh	a4,12(a0)
 14e:	00000097          	auipc	ra,0x0
 152:	000080e7          	jalr	ra,0(ra) # 14e <.LBB211+0x2c>

00000156 <.L130>:
 156:	4581                	c.li	a1,0
 158:	a029                	c.j	162 <.L106>

0000015a <.L111>:
 15a:	4a01                	c.li	s4,0
 15c:	0ff00493          	addi	s1,zero,255
 160:	45b1                	c.li	a1,12

00000162 <.L106>:
 162:	00045603          	lhu	a2,0(s0)
 166:	854e                	c.mv	a0,s3
 168:	00000097          	auipc	ra,0x0
 16c:	000080e7          	jalr	ra,0(ra) # 168 <.L106+0x6>

00000170 <.LVL201>:
 170:	4509                	c.li	a0,2
 172:	00000097          	auipc	ra,0x0
 176:	000080e7          	jalr	ra,0(ra) # 172 <.LVL201+0x2>

0000017a <.LVL202>:
 17a:	cd09                	c.beqz	a0,194 <.L110>
 17c:	0ff00793          	addi	a5,zero,255
 180:	00f48a63          	beq	s1,a5,194 <.L110>
 184:	00045583          	lhu	a1,0(s0)
 188:	8652                	c.mv	a2,s4
 18a:	8526                	c.mv	a0,s1
 18c:	00000097          	auipc	ra,0x0
 190:	000080e7          	jalr	ra,0(ra) # 18c <.LVL202+0x12>

00000194 <.L110>:
 194:	50b2                	c.lwsp	ra,44(sp)
 196:	5422                	c.lwsp	s0,40(sp)

00000198 <.LVL204>:
 198:	5492                	c.lwsp	s1,36(sp)

0000019a <.LVL205>:
 19a:	5902                	c.lwsp	s2,32(sp)
 19c:	49f2                	c.lwsp	s3,28(sp)
 19e:	4a62                	c.lwsp	s4,24(sp)

000001a0 <.LVL206>:
 1a0:	4ad2                	c.lwsp	s5,20(sp)
 1a2:	4501                	c.li	a0,0
 1a4:	6145                	c.addi16sp	sp,48
 1a6:	8082                	c.jr	ra

000001a8 <.L113>:
 1a8:	44e9                	c.li	s1,26
 1aa:	b775                	c.j	156 <.L130>

000001ac <.L120>:
 1ac:	0ff00493          	addi	s1,zero,255
 1b0:	45c9                	c.li	a1,18
 1b2:	bf45                	c.j	162 <.L106>

Disassembly of section .text.hci_wr_auth_payl_to_cmd_handler:

00000000 <hci_wr_auth_payl_to_cmd_handler>:
   0:	1101                	c.addi	sp,-32
   2:	8532                	c.mv	a0,a2

00000004 <.LVL209>:
   4:	ce06                	c.swsp	ra,28(sp)
   6:	cc22                	c.swsp	s0,24(sp)
   8:	ca26                	c.swsp	s1,20(sp)
   a:	c84a                	c.swsp	s2,16(sp)
   c:	c64e                	c.swsp	s3,12(sp)
   e:	892e                	c.mv	s2,a1
  10:	89b2                	c.mv	s3,a2
  12:	00000097          	auipc	ra,0x0
  16:	000080e7          	jalr	ra,0(ra) # 12 <.LVL209+0xe>

0000001a <.LVL210>:
  1a:	00095583          	lhu	a1,0(s2)
  1e:	842a                	c.mv	s0,a0

00000020 <.LVL211>:
  20:	6505                	c.lui	a0,0x1
  22:	c7c50613          	addi	a2,a0,-900 # c7c <.LASF83+0xe>
  26:	4691                	c.li	a3,4
  28:	80150513          	addi	a0,a0,-2047
  2c:	00000097          	auipc	ra,0x0
  30:	000080e7          	jalr	ra,0(ra) # 2c <.LVL211+0xc>

00000034 <.LVL212>:
  34:	883d                	c.andi	s0,15

00000036 <.LVL213>:
  36:	47bd                	c.li	a5,15
  38:	84aa                	c.mv	s1,a0

0000003a <.LBB212>:
  3a:	00f41663          	bne	s0,a5,46 <.L132>
  3e:	47b1                	c.li	a5,12

00000040 <.L136>:
  40:	00f48023          	sb	a5,0(s1)
  44:	a049                	c.j	c6 <.L133>

00000046 <.L132>:
  46:	0089d793          	srli	a5,s3,0x8
  4a:	00000437          	lui	s0,0x0
  4e:	078a                	c.slli	a5,0x2
  50:	00040413          	addi	s0,s0,0 # 0 <hci_wr_auth_payl_to_cmd_handler>
  54:	943e                	c.add	s0,a5
  56:	401c                	c.lw	a5,0(s0)
  58:	00295703          	lhu	a4,2(s2)
  5c:	4b94                	c.lw	a3,16(a5)

0000005e <.LVL215>:
  5e:	0712                	c.slli	a4,0x4
  60:	0786d783          	lhu	a5,120(a3)
  64:	05e6d683          	lhu	a3,94(a3)

00000068 <.LVL216>:
  68:	02d787b3          	mul	a5,a5,a3
  6c:	06f76e63          	bltu	a4,a5,e8 <.L134>
  70:	00050023          	sb	zero,0(a0)

00000074 <.LVL217>:
  74:	401c                	c.lw	a5,0(s0)
  76:	00295703          	lhu	a4,2(s2)
  7a:	4b88                	c.lw	a0,16(a5)
  7c:	04e79c23          	sh	a4,88(a5)
  80:	02850513          	addi	a0,a0,40
  84:	00000097          	auipc	ra,0x0
  88:	000080e7          	jalr	ra,0(ra) # 84 <.LVL217+0x10>

0000008c <.LVL218>:
  8c:	401c                	c.lw	a5,0(s0)
  8e:	468d                	c.li	a3,3
  90:	0a57c703          	lbu	a4,165(a5)
  94:	8b0d                	c.andi	a4,3
  96:	02d71863          	bne	a4,a3,c6 <.L133>
  9a:	0587d603          	lhu	a2,88(a5)
  9e:	05a7d783          	lhu	a5,90(a5)
  a2:	85ce                	c.mv	a1,s3
  a4:	10300513          	addi	a0,zero,259
  a8:	8e1d                	c.sub	a2,a5
  aa:	00000097          	auipc	ra,0x0
  ae:	000080e7          	jalr	ra,0(ra) # aa <.LVL218+0x1e>

000000b2 <.LVL219>:
  b2:	401c                	c.lw	a5,0(s0)
  b4:	85ce                	c.mv	a1,s3
  b6:	10400513          	addi	a0,zero,260
  ba:	0587d603          	lhu	a2,88(a5)
  be:	00000097          	auipc	ra,0x0
  c2:	000080e7          	jalr	ra,0(ra) # be <.LVL219+0xc>

000000c6 <.L133>:
  c6:	00095783          	lhu	a5,0(s2)
  ca:	8526                	c.mv	a0,s1
  cc:	00f49123          	sh	a5,2(s1)
  d0:	00000097          	auipc	ra,0x0
  d4:	000080e7          	jalr	ra,0(ra) # d0 <.L133+0xa>

000000d8 <.LVL221>:
  d8:	40f2                	c.lwsp	ra,28(sp)
  da:	4462                	c.lwsp	s0,24(sp)
  dc:	44d2                	c.lwsp	s1,20(sp)

000000de <.LVL222>:
  de:	4942                	c.lwsp	s2,16(sp)

000000e0 <.LVL223>:
  e0:	49b2                	c.lwsp	s3,12(sp)

000000e2 <.LVL224>:
  e2:	4501                	c.li	a0,0
  e4:	6105                	c.addi16sp	sp,32
  e6:	8082                	c.jr	ra

000000e8 <.L134>:
  e8:	47c9                	c.li	a5,18
  ea:	bf99                	c.j	40 <.L136>

Disassembly of section .text.hci_flush_cmd_handler:

00000000 <hci_flush_cmd_handler>:
   0:	1141                	c.addi	sp,-16
   2:	c606                	c.swsp	ra,12(sp)
   4:	c226                	c.swsp	s1,4(sp)
   6:	c422                	c.swsp	s0,8(sp)
   8:	0005d403          	lhu	s0,0(a1)

0000000c <.LVL227>:
   c:	6505                	c.lui	a0,0x1

0000000e <.LVL228>:
   e:	c0850613          	addi	a2,a0,-1016 # c08 <.LASF358+0xa>

00000012 <.LVL229>:
  12:	85a2                	c.mv	a1,s0

00000014 <.LVL230>:
  14:	4691                	c.li	a3,4

00000016 <.LVL231>:
  16:	80150513          	addi	a0,a0,-2047
  1a:	00000097          	auipc	ra,0x0
  1e:	000080e7          	jalr	ra,0(ra) # 1a <.LVL231+0x4>

00000022 <.LVL232>:
  22:	84aa                	c.mv	s1,a0

00000024 <.LVL233>:
  24:	8522                	c.mv	a0,s0
  26:	00000097          	auipc	ra,0x0
  2a:	000080e7          	jalr	ra,0(ra) # 26 <.LVL233+0x2>

0000002e <.LVL234>:
  2e:	000007b7          	lui	a5,0x0
  32:	00241713          	slli	a4,s0,0x2
  36:	00078793          	addi	a5,a5,0 # 0 <hci_flush_cmd_handler>
  3a:	97ba                	c.add	a5,a4
  3c:	439c                	c.lw	a5,0(a5)
  3e:	4b88                	c.lw	a0,16(a5)
  40:	02850513          	addi	a0,a0,40
  44:	00000097          	auipc	ra,0x0
  48:	000080e7          	jalr	ra,0(ra) # 44 <.LVL234+0x16>

0000004c <.LVL235>:
  4c:	8526                	c.mv	a0,s1
  4e:	00849123          	sh	s0,2(s1)
  52:	00048023          	sb	zero,0(s1)
  56:	00000097          	auipc	ra,0x0
  5a:	000080e7          	jalr	ra,0(ra) # 56 <.LVL235+0xa>

0000005e <.LVL236>:
  5e:	40b2                	c.lwsp	ra,12(sp)
  60:	4422                	c.lwsp	s0,8(sp)

00000062 <.LVL237>:
  62:	4492                	c.lwsp	s1,4(sp)

00000064 <.LVL238>:
  64:	4501                	c.li	a0,0
  66:	0141                	c.addi	sp,16
  68:	8082                	c.jr	ra

Disassembly of section .text.hci_rd_rem_ver_info_cmd_handler:

00000000 <hci_rd_rem_ver_info_cmd_handler>:
   0:	1101                	c.addi	sp,-32
   2:	8532                	c.mv	a0,a2

00000004 <.LVL240>:
   4:	c84a                	c.swsp	s2,16(sp)
   6:	c64e                	c.swsp	s3,12(sp)
   8:	c452                	c.swsp	s4,8(sp)
   a:	ce06                	c.swsp	ra,28(sp)
   c:	cc22                	c.swsp	s0,24(sp)
   e:	ca26                	c.swsp	s1,20(sp)
  10:	892e                	c.mv	s2,a1
  12:	89b2                	c.mv	s3,a2
  14:	8a36                	c.mv	s4,a3
  16:	00000097          	auipc	ra,0x0
  1a:	000080e7          	jalr	ra,0(ra) # 16 <.LVL240+0x12>

0000001e <.LBB216>:
  1e:	00f57713          	andi	a4,a0,15
  22:	47bd                	c.li	a5,15
  24:	00f71b63          	bne	a4,a5,3a <.L140>
  28:	00095603          	lhu	a2,0(s2)
  2c:	45b1                	c.li	a1,12

0000002e <.L145>:
  2e:	8552                	c.mv	a0,s4
  30:	00000097          	auipc	ra,0x0
  34:	000080e7          	jalr	ra,0(ra) # 30 <.L145+0x2>

00000038 <.LVL243>:
  38:	a82d                	c.j	72 <.L146>

0000003a <.L140>:
  3a:	0089d493          	srli	s1,s3,0x8
  3e:	000007b7          	lui	a5,0x0
  42:	00078793          	addi	a5,a5,0 # 0 <hci_rd_rem_ver_info_cmd_handler>
  46:	00249413          	slli	s0,s1,0x2
  4a:	943e                	c.add	s0,a5
  4c:	401c                	c.lw	a5,0(s0)
  4e:	05c7d783          	lhu	a5,92(a5)
  52:	8b89                	c.andi	a5,2
  54:	cb8d                	c.beqz	a5,86 <.L142>
  56:	00095603          	lhu	a2,0(s2)
  5a:	4581                	c.li	a1,0
  5c:	8552                	c.mv	a0,s4

0000005e <.LVL245>:
  5e:	00000097          	auipc	ra,0x0
  62:	000080e7          	jalr	ra,0(ra) # 5e <.LVL245>

00000066 <.LVL246>:
  66:	85a6                	c.mv	a1,s1
  68:	4501                	c.li	a0,0
  6a:	00000097          	auipc	ra,0x0
  6e:	000080e7          	jalr	ra,0(ra) # 6a <.LVL246+0x4>

00000072 <.L146>:
  72:	4481                	c.li	s1,0

00000074 <.L139>:
  74:	40f2                	c.lwsp	ra,28(sp)
  76:	4462                	c.lwsp	s0,24(sp)
  78:	8526                	c.mv	a0,s1
  7a:	4942                	c.lwsp	s2,16(sp)

0000007c <.LVL248>:
  7c:	44d2                	c.lwsp	s1,20(sp)
  7e:	49b2                	c.lwsp	s3,12(sp)

00000080 <.LVL249>:
  80:	4a22                	c.lwsp	s4,8(sp)
  82:	6105                	c.addi16sp	sp,32
  84:	8082                	c.jr	ra

00000086 <.L142>:
  86:	00557793          	andi	a5,a0,5
  8a:	4489                	c.li	s1,2
  8c:	f7e5                	c.bnez	a5,74 <.L139>

0000008e <.LBB218>:
  8e:	00156593          	ori	a1,a0,1
  92:	0ff5f593          	andi	a1,a1,255
  96:	854e                	c.mv	a0,s3

00000098 <.LVL252>:
  98:	00000097          	auipc	ra,0x0
  9c:	000080e7          	jalr	ra,0(ra) # 98 <.LVL252>

000000a0 <.LBE218>:
  a0:	401c                	c.lw	a5,0(s0)
  a2:	0a9781a3          	sb	s1,163(a5)
  a6:	00095503          	lhu	a0,0(s2)
  aa:	00000097          	auipc	ra,0x0
  ae:	000080e7          	jalr	ra,0(ra) # aa <.LBE218+0xa>

000000b2 <.LVL254>:
  b2:	6605                	c.lui	a2,0x1
  b4:	fa060613          	addi	a2,a2,-96 # fa0 <.LLST67+0x2>
  b8:	85ce                	c.mv	a1,s3
  ba:	10200513          	addi	a0,zero,258
  be:	00000097          	auipc	ra,0x0
  c2:	000080e7          	jalr	ra,0(ra) # be <.LVL254+0xc>

000000c6 <.LVL255>:
  c6:	00095603          	lhu	a2,0(s2)
  ca:	4581                	c.li	a1,0
  cc:	b78d                	c.j	2e <.L145>

Disassembly of section .text.llc_hci_command_handler:

00000000 <llc_hci_command_handler>:
   0:	00000737          	lui	a4,0x0
   4:	00070513          	addi	a0,a4,0 # 0 <llc_hci_command_handler>

00000008 <.LVL257>:
   8:	4781                	c.li	a5,0
   a:	00070713          	addi	a4,a4,0
   e:	4841                	c.li	a6,16

00000010 <.L150>:
  10:	00055883          	lhu	a7,0(a0)
  14:	00d89a63          	bne	a7,a3,28 <.L148>
  18:	078e                	c.slli	a5,0x3

0000001a <.LVL259>:
  1a:	97ba                	c.add	a5,a4
  1c:	0047a303          	lw	t1,4(a5)
  20:	00030863          	beq	t1,zero,30 <.L147>
  24:	8536                	c.mv	a0,a3
  26:	8302                	c.jr	t1

00000028 <.L148>:
  28:	0785                	c.addi	a5,1
  2a:	0521                	c.addi	a0,8
  2c:	ff0792e3          	bne	a5,a6,10 <.L150>

00000030 <.L147>:
  30:	4501                	c.li	a0,0
  32:	8082                	c.jr	ra

Disassembly of section .text.llc_hci_acl_data_tx_handler:

00000000 <llc_hci_acl_data_tx_handler>:
   0:	1141                	c.addi	sp,-16
   2:	8532                	c.mv	a0,a2

00000004 <.LVL264>:
   4:	c422                	c.swsp	s0,8(sp)
   6:	c606                	c.swsp	ra,12(sp)
   8:	c226                	c.swsp	s1,4(sp)
   a:	842e                	c.mv	s0,a1
   c:	00000097          	auipc	ra,0x0
  10:	000080e7          	jalr	ra,0(ra) # c <.LVL264+0x8>

00000014 <.LBB221>:
  14:	893d                	c.andi	a0,15

00000016 <.LVL266>:
  16:	47bd                	c.li	a5,15
  18:	00f50563          	beq	a0,a5,22 <.L155>
  1c:	00445783          	lhu	a5,4(s0)
  20:	e7b9                	c.bnez	a5,6e <.L156>

00000022 <.L155>:
  22:	300024f3          	csrrs	s1,mstatus,zero

00000026 <.LBB225>:
  26:	300477f3          	csrrci	a5,mstatus,8

0000002a <.LBB226>:
  2a:	441c                	c.lw	a5,8(s0)

0000002c <.LBB229>:
  2c:	000005b7          	lui	a1,0x0
  30:	00058593          	addi	a1,a1,0 # 0 <llc_hci_acl_data_tx_handler>
  34:	0047d783          	lhu	a5,4(a5)
  38:	00000537          	lui	a0,0x0
  3c:	00850513          	addi	a0,a0,8 # 8 <.LVL264+0x4>
  40:	02978793          	addi	a5,a5,41
  44:	078e                	c.slli	a5,0x3
  46:	95be                	c.add	a1,a5
  48:	00000097          	auipc	ra,0x0
  4c:	000080e7          	jalr	ra,0(ra) # 48 <.LBB229+0x1c>

00000050 <.LBE229>:
  50:	30049073          	csrrw	zero,mstatus,s1

00000054 <.LBE223>:
  54:	00045503          	lhu	a0,0(s0)
  58:	4585                	c.li	a1,1
  5a:	00000097          	auipc	ra,0x0
  5e:	000080e7          	jalr	ra,0(ra) # 5a <.LBE223+0x6>

00000062 <.L157>:
  62:	40b2                	c.lwsp	ra,12(sp)
  64:	4422                	c.lwsp	s0,8(sp)

00000066 <.LVL271>:
  66:	4492                	c.lwsp	s1,4(sp)
  68:	4501                	c.li	a0,0
  6a:	0141                	c.addi	sp,16
  6c:	8082                	c.jr	ra

0000006e <.L156>:
  6e:	8522                	c.mv	a0,s0
  70:	00000097          	auipc	ra,0x0
  74:	000080e7          	jalr	ra,0(ra) # 70 <.L156+0x2>

00000078 <.LVL273>:
  78:	e901                	c.bnez	a0,88 <.L158>
  7a:	00045503          	lhu	a0,0(s0)

0000007e <.LVL274>:
  7e:	4585                	c.li	a1,1
  80:	00000097          	auipc	ra,0x0
  84:	000080e7          	jalr	ra,0(ra) # 80 <.LVL274+0x2>

00000088 <.L158>:
  88:	00045703          	lhu	a4,0(s0)
  8c:	000007b7          	lui	a5,0x0
  90:	00078793          	addi	a5,a5,0 # 0 <llc_hci_acl_data_tx_handler>
  94:	070a                	c.slli	a4,0x2
  96:	97ba                	c.add	a5,a4
  98:	439c                	c.lw	a5,0(a5)
  9a:	4b88                	c.lw	a0,16(a5)
  9c:	00000097          	auipc	ra,0x0
  a0:	000080e7          	jalr	ra,0(ra) # 9c <.L158+0x14>

000000a4 <.LVL276>:
  a4:	bf7d                	c.j	62 <.L157>

llc_llcp.o:     file format elf32-littleriscv


Disassembly of section .text.llc_llcp_send:

00000000 <llc_llcp_send>:
   0:	1101                	c.addi	sp,-32
   2:	c452                	c.swsp	s4,8(sp)
   4:	c05a                	c.swsp	s6,0(sp)
   6:	8a2a                	c.mv	s4,a0
   8:	8b2e                	c.mv	s6,a1
   a:	4569                	c.li	a0,26

0000000c <.LVL1>:
   c:	4581                	c.li	a1,0

0000000e <.LVL2>:
   e:	c64e                	c.swsp	s3,12(sp)
  10:	c256                	c.swsp	s5,4(sp)
  12:	ce06                	c.swsp	ra,28(sp)
  14:	cc22                	c.swsp	s0,24(sp)
  16:	ca26                	c.swsp	s1,20(sp)
  18:	c84a                	c.swsp	s2,16(sp)
  1a:	8ab2                	c.mv	s5,a2
  1c:	00000097          	auipc	ra,0x0
  20:	000080e7          	jalr	ra,0(ra) # 1c <.LVL2+0xe>

00000024 <.LVL3>:
  24:	89aa                	c.mv	s3,a0

00000026 <.LVL4>:
  26:	4581                	c.li	a1,0
  28:	4541                	c.li	a0,16

0000002a <.LVL5>:
  2a:	00000097          	auipc	ra,0x0
  2e:	000080e7          	jalr	ra,0(ra) # 2a <.LVL5>

00000032 <.LVL6>:
  32:	06098963          	beq	s3,zero,a4 <.L1>
  36:	84aa                	c.mv	s1,a0
  38:	c535                	c.beqz	a0,a4 <.L1>

0000003a <.LBB346>:
  3a:	00000437          	lui	s0,0x0
  3e:	002a1793          	slli	a5,s4,0x2
  42:	00040413          	addi	s0,s0,0 # 0 <llc_llcp_send>
  46:	943e                	c.add	s0,a5
  48:	401c                	c.lw	a5,0(s0)
  4a:	4669                	c.li	a2,26
  4c:	85da                	c.mv	a1,s6
  4e:	0107a903          	lw	s2,16(a5)
  52:	000007b7          	lui	a5,0x0
  56:	0007a783          	lw	a5,0(a5) # 0 <llc_llcp_send>
  5a:	854e                	c.mv	a0,s3

0000005c <.LVL8>:
  5c:	04090913          	addi	s2,s2,64

00000060 <.LVL9>:
  60:	9782                	c.jalr	a5

00000062 <.LVL10>:
  62:	0134a423          	sw	s3,8(s1)
  66:	01449223          	sh	s4,4(s1)
  6a:	01548623          	sb	s5,12(s1)

0000006e <.LBB347>:
  6e:	300029f3          	csrrs	s3,mstatus,zero

00000072 <.LBB349>:
  72:	300477f3          	csrrci	a5,mstatus,8

00000076 <.LBE349>:
  76:	85a6                	c.mv	a1,s1
  78:	854a                	c.mv	a0,s2
  7a:	00000097          	auipc	ra,0x0
  7e:	000080e7          	jalr	ra,0(ra) # 7a <.LBE349+0x4>

00000082 <.LVL13>:
  82:	30099073          	csrrw	zero,mstatus,s3

00000086 <.LBE347>:
  86:	401c                	c.lw	a5,0(s0)

00000088 <.LBE346>:
  88:	4462                	c.lwsp	s0,24(sp)
  8a:	40f2                	c.lwsp	ra,28(sp)
  8c:	44d2                	c.lwsp	s1,20(sp)

0000008e <.LVL14>:
  8e:	4942                	c.lwsp	s2,16(sp)

00000090 <.LVL15>:
  90:	49b2                	c.lwsp	s3,12(sp)

00000092 <.LVL16>:
  92:	4a22                	c.lwsp	s4,8(sp)
  94:	4a92                	c.lwsp	s5,4(sp)
  96:	4b02                	c.lwsp	s6,0(sp)

00000098 <.LBB350>:
  98:	4b88                	c.lw	a0,16(a5)

0000009a <.LBE350>:
  9a:	6105                	c.addi16sp	sp,32

0000009c <.LBB351>:
  9c:	00000317          	auipc	t1,0x0
  a0:	00030067          	jalr	zero,0(t1) # 9c <.LBB351>

000000a4 <.L1>:
  a4:	40f2                	c.lwsp	ra,28(sp)
  a6:	4462                	c.lwsp	s0,24(sp)
  a8:	44d2                	c.lwsp	s1,20(sp)
  aa:	4942                	c.lwsp	s2,16(sp)
  ac:	49b2                	c.lwsp	s3,12(sp)

000000ae <.LVL19>:
  ae:	4a22                	c.lwsp	s4,8(sp)
  b0:	4a92                	c.lwsp	s5,4(sp)
  b2:	4b02                	c.lwsp	s6,0(sp)

000000b4 <.LVL20>:
  b4:	6105                	c.addi16sp	sp,32
  b6:	8082                	c.jr	ra

Disassembly of section .text.llcp_ping_rsp_handler:

00000000 <llcp_ping_rsp_handler>:
   0:	1141                	c.addi	sp,-16
   2:	c04a                	c.swsp	s2,0(sp)
   4:	892a                	c.mv	s2,a0
   6:	852e                	c.mv	a0,a1

00000008 <.LVL22>:
   8:	c422                	c.swsp	s0,8(sp)
   a:	c226                	c.swsp	s1,4(sp)
   c:	c606                	c.swsp	ra,12(sp)
   e:	842e                	c.mv	s0,a1
  10:	00000097          	auipc	ra,0x0
  14:	000080e7          	jalr	ra,0(ra) # 10 <.LVL22+0x8>

00000018 <.LVL23>:
  18:	000007b7          	lui	a5,0x0
  1c:	00291713          	slli	a4,s2,0x2
  20:	00078793          	addi	a5,a5,0 # 0 <llcp_ping_rsp_handler>
  24:	97ba                	c.add	a5,a4
  26:	4384                	c.lw	s1,0(a5)

00000028 <.LVL24>:
  28:	0a54c783          	lbu	a5,165(s1)
  2c:	8ba1                	c.andi	a5,8
  2e:	cf99                	c.beqz	a5,4c <.L11>
  30:	03d00593          	addi	a1,zero,61
  34:	854a                	c.mv	a0,s2

00000036 <.LVL25>:
  36:	00000097          	auipc	ra,0x0
  3a:	000080e7          	jalr	ra,0(ra) # 36 <.LVL25>

0000003e <.L12>:
  3e:	40b2                	c.lwsp	ra,12(sp)
  40:	4422                	c.lwsp	s0,8(sp)
  42:	4492                	c.lwsp	s1,4(sp)

00000044 <.LVL27>:
  44:	4902                	c.lwsp	s2,0(sp)
  46:	4501                	c.li	a0,0
  48:	0141                	c.addi	sp,16
  4a:	8082                	c.jr	ra

0000004c <.L11>:
  4c:	00157793          	andi	a5,a0,1
  50:	d7fd                	c.beqz	a5,3e <.L12>
  52:	0a34c703          	lbu	a4,163(s1)
  56:	4795                	c.li	a5,5
  58:	fef713e3          	bne	a4,a5,3e <.L12>

0000005c <.LBB354>:
  5c:	0fe57593          	andi	a1,a0,254
  60:	8522                	c.mv	a0,s0

00000062 <.LVL30>:
  62:	00000097          	auipc	ra,0x0
  66:	000080e7          	jalr	ra,0(ra) # 62 <.LVL30>

0000006a <.LBE354>:
  6a:	85a2                	c.mv	a1,s0
  6c:	0a0481a3          	sb	zero,163(s1)
  70:	10200513          	addi	a0,zero,258
  74:	00000097          	auipc	ra,0x0
  78:	000080e7          	jalr	ra,0(ra) # 74 <.LBE354+0xa>

0000007c <.LVL32>:
  7c:	b7c9                	c.j	3e <.L12>

Disassembly of section .text.llcp_terminate_ind_handler:

00000000 <llcp_terminate_ind_handler>:
   0:	1141                	c.addi	sp,-16
   2:	c422                	c.swsp	s0,8(sp)
   4:	842a                	c.mv	s0,a0
   6:	10200513          	addi	a0,zero,258

0000000a <.LVL34>:
   a:	c606                	c.swsp	ra,12(sp)
   c:	c226                	c.swsp	s1,4(sp)
   e:	c04a                	c.swsp	s2,0(sp)
  10:	84b6                	c.mv	s1,a3
  12:	892e                	c.mv	s2,a1
  14:	00000097          	auipc	ra,0x0
  18:	000080e7          	jalr	ra,0(ra) # 14 <.LVL34+0xa>

0000001c <.LVL35>:
  1c:	000007b7          	lui	a5,0x0
  20:	00241713          	slli	a4,s0,0x2
  24:	00078793          	addi	a5,a5,0 # 0 <llcp_terminate_ind_handler>
  28:	97ba                	c.add	a5,a4
  2a:	439c                	c.lw	a5,0(a5)
  2c:	0014c703          	lbu	a4,1(s1)
  30:	45bd                	c.li	a1,15
  32:	854a                	c.mv	a0,s2
  34:	0ae780a3          	sb	a4,161(a5)
  38:	05c7d703          	lhu	a4,92(a5)
  3c:	20076713          	ori	a4,a4,512
  40:	04e79e23          	sh	a4,92(a5)
  44:	00000097          	auipc	ra,0x0
  48:	000080e7          	jalr	ra,0(ra) # 44 <.LVL35+0x28>

0000004c <.LVL36>:
  4c:	8522                	c.mv	a0,s0
  4e:	00000097          	auipc	ra,0x0
  52:	000080e7          	jalr	ra,0(ra) # 4e <.LVL36+0x2>

00000056 <.LVL37>:
  56:	4791                	c.li	a5,4
  58:	00f51963          	bne	a0,a5,6a <.L18>
  5c:	0014c583          	lbu	a1,1(s1)
  60:	8522                	c.mv	a0,s0
  62:	00000097          	auipc	ra,0x0
  66:	000080e7          	jalr	ra,0(ra) # 62 <.LVL37+0xc>

0000006a <.L18>:
  6a:	40b2                	c.lwsp	ra,12(sp)
  6c:	4422                	c.lwsp	s0,8(sp)
  6e:	4492                	c.lwsp	s1,4(sp)

00000070 <.LVL39>:
  70:	4902                	c.lwsp	s2,0(sp)
  72:	4501                	c.li	a0,0
  74:	0141                	c.addi	sp,16
  76:	8082                	c.jr	ra

Disassembly of section .text.llcp_enc_rsp_handler:

00000000 <llcp_enc_rsp_handler>:
   0:	7179                	c.addi16sp	sp,-48
   2:	d422                	c.swsp	s0,40(sp)
   4:	842a                	c.mv	s0,a0
   6:	852e                	c.mv	a0,a1

00000008 <.LVL41>:
   8:	d226                	c.swsp	s1,36(sp)
   a:	d04a                	c.swsp	s2,32(sp)
   c:	ce4e                	c.swsp	s3,28(sp)
   e:	cc52                	c.swsp	s4,24(sp)
  10:	ca56                	c.swsp	s5,20(sp)
  12:	c85a                	c.swsp	s6,16(sp)
  14:	00000937          	lui	s2,0x0
  18:	d606                	c.swsp	ra,44(sp)
  1a:	c65e                	c.swsp	s7,12(sp)
  1c:	8a2e                	c.mv	s4,a1
  1e:	89b6                	c.mv	s3,a3
  20:	00000097          	auipc	ra,0x0
  24:	000080e7          	jalr	ra,0(ra) # 20 <.LVL41+0x18>

00000028 <.LVL42>:
  28:	00090793          	addi	a5,s2,0 # 0 <llcp_enc_rsp_handler>
  2c:	00241a93          	slli	s5,s0,0x2
  30:	97d6                	c.add	a5,s5
  32:	4384                	c.lw	s1,0(a5)
  34:	8b2a                	c.mv	s6,a0

00000036 <.LVL43>:
  36:	00090913          	addi	s2,s2,0
  3a:	0a54c783          	lbu	a5,165(s1)
  3e:	8ba1                	c.andi	a5,8
  40:	cf89                	c.beqz	a5,5a <.L21>
  42:	0a34c703          	lbu	a4,163(s1)
  46:	47b5                	c.li	a5,13
  48:	00f70963          	beq	a4,a5,5a <.L21>
  4c:	03d00593          	addi	a1,zero,61
  50:	8522                	c.mv	a0,s0
  52:	00000097          	auipc	ra,0x0
  56:	000080e7          	jalr	ra,0(ra) # 52 <.LVL43+0x1c>

0000005a <.L21>:
  5a:	001b7b13          	andi	s6,s6,1

0000005e <.LVL45>:
  5e:	000b0763          	beq	s6,zero,6c <.L22>
  62:	0a34c703          	lbu	a4,163(s1)
  66:	47b5                	c.li	a5,13
  68:	0cf71263          	bne	a4,a5,12c <.L23>

0000006c <.L22>:
  6c:	02000693          	addi	a3,zero,32
  70:	8652                	c.mv	a2,s4
  72:	4581                	c.li	a1,0
  74:	4511                	c.li	a0,4
  76:	00000097          	auipc	ra,0x0
  7a:	000080e7          	jalr	ra,0(ra) # 76 <.L22+0xa>

0000007e <.LVL46>:
  7e:	00000bb7          	lui	s7,0x0
  82:	000ba783          	lw	a5,0(s7) # 0 <llcp_enc_rsp_handler>
  86:	8b2a                	c.mv	s6,a0

00000088 <.LVL47>:
  88:	00198593          	addi	a1,s3,1
  8c:	4621                	c.li	a2,8
  8e:	07948513          	addi	a0,s1,121

00000092 <.LVL48>:
  92:	9782                	c.jalr	a5

00000094 <.LVL49>:
  94:	000ba783          	lw	a5,0(s7)
  98:	08148593          	addi	a1,s1,129
  9c:	4641                	c.li	a2,16
  9e:	855a                	c.mv	a0,s6
  a0:	9782                	c.jalr	a5

000000a2 <.LVL50>:
  a2:	000ba783          	lw	a5,0(s7)
  a6:	4641                	c.li	a2,16
  a8:	07148593          	addi	a1,s1,113
  ac:	010b0513          	addi	a0,s6,16
  b0:	9782                	c.jalr	a5

000000b2 <.LVL51>:
  b2:	855a                	c.mv	a0,s6
  b4:	00000097          	auipc	ra,0x0
  b8:	000080e7          	jalr	ra,0(ra) # b4 <.LVL51+0x2>

000000bc <.LBB359>:
  bc:	00a9c783          	lbu	a5,10(s3)
  c0:	0099c703          	lbu	a4,9(s3)
  c4:	07a2                	c.slli	a5,0x8
  c6:	8fd9                	c.or	a5,a4

000000c8 <.LBB365>:
  c8:	05c00713          	addi	a4,zero,92
  cc:	02e40433          	mul	s0,s0,a4

000000d0 <.LVL54>:
  d0:	28008737          	lui	a4,0x28008
  d4:	0c870693          	addi	a3,a4,200 # 280080c8 <.LASF870+0x28003412>
  d8:	0ca70713          	addi	a4,a4,202
  dc:	96a2                	c.add	a3,s0
  de:	00f69023          	sh	a5,0(a3)

000000e2 <.LBB369>:
  e2:	00c9c783          	lbu	a5,12(s3)
  e6:	00b9c683          	lbu	a3,11(s3)

000000ea <.LBB370>:
  ea:	943a                	c.add	s0,a4

000000ec <.LBB371>:
  ec:	07a2                	c.slli	a5,0x8
  ee:	8fd5                	c.or	a5,a3

000000f0 <.LBB372>:
  f0:	00f41023          	sh	a5,0(s0)

000000f4 <.LBB373>:
  f4:	300026f3          	csrrs	a3,mstatus,zero

000000f8 <.LBB375>:
  f8:	300477f3          	csrrci	a5,mstatus,8

000000fc <.LBE375>:
  fc:	9956                	c.add	s2,s5
  fe:	00092703          	lw	a4,0(s2)
 102:	0a574783          	lbu	a5,165(a4)
 106:	0087e793          	ori	a5,a5,8
 10a:	0af702a3          	sb	a5,165(a4)
 10e:	30069073          	csrrw	zero,mstatus,a3

00000112 <.LBE373>:
 112:	47b9                	c.li	a5,14
 114:	6605                	c.lui	a2,0x1
 116:	0af481a3          	sb	a5,163(s1)
 11a:	fa060613          	addi	a2,a2,-96 # fa0 <.LASF394+0xb>
 11e:	85d2                	c.mv	a1,s4
 120:	10200513          	addi	a0,zero,258
 124:	00000097          	auipc	ra,0x0
 128:	000080e7          	jalr	ra,0(ra) # 124 <.LBE373+0x12>

0000012c <.L23>:
 12c:	50b2                	c.lwsp	ra,44(sp)
 12e:	5422                	c.lwsp	s0,40(sp)
 130:	5492                	c.lwsp	s1,36(sp)

00000132 <.LVL61>:
 132:	5902                	c.lwsp	s2,32(sp)
 134:	49f2                	c.lwsp	s3,28(sp)

00000136 <.LVL62>:
 136:	4a62                	c.lwsp	s4,24(sp)
 138:	4ad2                	c.lwsp	s5,20(sp)
 13a:	4b42                	c.lwsp	s6,16(sp)
 13c:	4bb2                	c.lwsp	s7,12(sp)
 13e:	4501                	c.li	a0,0
 140:	6145                	c.addi16sp	sp,48
 142:	8082                	c.jr	ra

Disassembly of section .text.llc_llcp_reject_ind:

00000000 <llc_llcp_reject_ind>:
   0:	7139                	c.addi16sp	sp,-64
   2:	dc22                	c.swsp	s0,56(sp)
   4:	d452                	c.swsp	s4,40(sp)
   6:	00000437          	lui	s0,0x0
   a:	8a2a                	c.mv	s4,a0
   c:	852e                	c.mv	a0,a1

0000000e <.LVL64>:
   e:	c636                	c.swsp	a3,12(sp)
  10:	de06                	c.swsp	ra,60(sp)
  12:	da26                	c.swsp	s1,52(sp)
  14:	d84a                	c.swsp	s2,48(sp)
  16:	d64e                	c.swsp	s3,44(sp)
  18:	d256                	c.swsp	s5,36(sp)
  1a:	d05a                	c.swsp	s6,32(sp)
  1c:	ce5e                	c.swsp	s7,28(sp)
  1e:	84ae                	c.mv	s1,a1
  20:	8b32                	c.mv	s6,a2
  22:	00040a93          	addi	s5,s0,0 # 0 <llc_llcp_reject_ind>
  26:	00000097          	auipc	ra,0x0
  2a:	000080e7          	jalr	ra,0(ra) # 26 <.LVL64+0x18>

0000002e <.LVL65>:
  2e:	002a1b93          	slli	s7,s4,0x2
  32:	89aa                	c.mv	s3,a0

00000034 <.LVL66>:
  34:	9ade                	c.add	s5,s7
  36:	85a6                	c.mv	a1,s1
  38:	10200513          	addi	a0,zero,258
  3c:	000aa903          	lw	s2,0(s5)

00000040 <.LVL67>:
  40:	00000097          	auipc	ra,0x0
  44:	000080e7          	jalr	ra,0(ra) # 40 <.LVL67>

00000048 <.LBB377>:
  48:	0019f793          	andi	a5,s3,1
  4c:	00040413          	addi	s0,s0,0
  50:	46b2                	c.lwsp	a3,12(sp)
  52:	18078163          	beq	a5,zero,1d4 <.L32>
  56:	0a394783          	lbu	a5,163(s2)
  5a:	4731                	c.li	a4,12
  5c:	17f1                	c.addi	a5,-4
  5e:	0ff7f793          	andi	a5,a5,255
  62:	1af76263          	bltu	a4,a5,206 <.L33>
  66:	00000737          	lui	a4,0x0
  6a:	078a                	c.slli	a5,0x2
  6c:	00070713          	addi	a4,a4,0 # 0 <llc_llcp_reject_ind>
  70:	97ba                	c.add	a5,a4
  72:	439c                	c.lw	a5,0(a5)
  74:	8782                	c.jr	a5

00000076 <.L34>:
  76:	85a6                	c.mv	a1,s1
  78:	10200513          	addi	a0,zero,258
  7c:	00000097          	auipc	ra,0x0
  80:	000080e7          	jalr	ra,0(ra) # 7c <.L34+0x6>

00000084 <.LVL69>:
  84:	8552                	c.mv	a0,s4
  86:	00000097          	auipc	ra,0x0
  8a:	000080e7          	jalr	ra,0(ra) # 86 <.LVL69+0x2>

0000008e <.LVL70>:
  8e:	478d                	c.li	a5,3
  90:	10f51863          	bne	a0,a5,1a0 <.L31>
  94:	945e                	c.add	s0,s7
  96:	4018                	c.lw	a4,0(s0)
  98:	0a574783          	lbu	a5,165(a4)
  9c:	8bc1                	c.andi	a5,16
  9e:	10079163          	bne	a5,zero,1a0 <.L31>
  a2:	865a                	c.mv	a2,s6
  a4:	8552                	c.mv	a0,s4
  a6:	0a0702a3          	sb	zero,165(a4)
  aa:	4581                	c.li	a1,0

000000ac <.LBB379>:
  ac:	09e2                	c.slli	s3,0x18

000000ae <.LBE379>:
  ae:	00000097          	auipc	ra,0x0
  b2:	000080e7          	jalr	ra,0(ra) # ae <.LBE379>

000000b6 <.LBB382>:
  b6:	4189d993          	srai	s3,s3,0x18

000000ba <.LVL73>:
  ba:	0fe9f593          	andi	a1,s3,254
  be:	8526                	c.mv	a0,s1
  c0:	00000097          	auipc	ra,0x0
  c4:	000080e7          	jalr	ra,0(ra) # c0 <.LVL73+0x6>

000000c8 <.LBE382>:
  c8:	0a0901a3          	sb	zero,163(s2)

000000cc <.LBB383>:
  cc:	5462                	c.lwsp	s0,56(sp)
  ce:	50f2                	c.lwsp	ra,60(sp)
  d0:	5942                	c.lwsp	s2,48(sp)

000000d2 <.LVL76>:
  d2:	5a22                	c.lwsp	s4,40(sp)
  d4:	5a92                	c.lwsp	s5,36(sp)
  d6:	5b02                	c.lwsp	s6,32(sp)
  d8:	4bf2                	c.lwsp	s7,28(sp)

000000da <.LBB387>:
  da:	0fa9f593          	andi	a1,s3,250
  de:	8526                	c.mv	a0,s1

000000e0 <.LBE387>:
  e0:	59b2                	c.lwsp	s3,44(sp)

000000e2 <.LVL77>:
  e2:	54d2                	c.lwsp	s1,52(sp)

000000e4 <.LVL78>:
  e4:	6121                	c.addi16sp	sp,64

000000e6 <.LBB388>:
  e6:	00000317          	auipc	t1,0x0
  ea:	00030067          	jalr	zero,0(t1) # e6 <.LBB388>

000000ee <.L37>:
  ee:	10068c63          	beq	a3,zero,206 <.L33>
  f2:	01740ab3          	add	s5,s0,s7
  f6:	000aa783          	lw	a5,0(s5)
  fa:	0a57c783          	lbu	a5,165(a5)
  fe:	8ba1                	c.andi	a5,8
 100:	10079363          	bne	a5,zero,206 <.L33>
 104:	85a6                	c.mv	a1,s1
 106:	10200513          	addi	a0,zero,258
 10a:	00000097          	auipc	ra,0x0
 10e:	000080e7          	jalr	ra,0(ra) # 10a <.L37+0x1c>

00000112 <.LVL80>:
 112:	47e9                	c.li	a5,26
 114:	02fb1e63          	bne	s6,a5,150 <.L42>
 118:	8552                	c.mv	a0,s4
 11a:	00000097          	auipc	ra,0x0
 11e:	000080e7          	jalr	ra,0(ra) # 11a <.LVL80+0x8>

00000122 <.LVL81>:
 122:	478d                	c.li	a5,3
 124:	02f51663          	bne	a0,a5,150 <.L42>

00000128 <.LBB389>:
 128:	000aa783          	lw	a5,0(s5)
 12c:	4388                	c.lw	a0,0(a5)

0000012e <.LBE390>:
 12e:	4789                	c.li	a5,2
 130:	00f50023          	sb	a5,0(a0)

00000134 <.LBE389>:
 134:	5462                	c.lwsp	s0,56(sp)
 136:	50f2                	c.lwsp	ra,60(sp)
 138:	54d2                	c.lwsp	s1,52(sp)
 13a:	5942                	c.lwsp	s2,48(sp)

0000013c <.LVL84>:
 13c:	59b2                	c.lwsp	s3,44(sp)

0000013e <.LVL85>:
 13e:	5a22                	c.lwsp	s4,40(sp)
 140:	5a92                	c.lwsp	s5,36(sp)
 142:	5b02                	c.lwsp	s6,32(sp)
 144:	4bf2                	c.lwsp	s7,28(sp)
 146:	6121                	c.addi16sp	sp,64

00000148 <.LBB392>:
 148:	00000317          	auipc	t1,0x0
 14c:	00030067          	jalr	zero,0(t1) # 148 <.LBB392>

00000150 <.L42>:
 150:	05c95783          	lhu	a5,92(s2)
 154:	0407f713          	andi	a4,a5,64
 158:	c70d                	c.beqz	a4,182 <.L44>
 15a:	fbf7f793          	andi	a5,a5,-65
 15e:	04f91e23          	sh	a5,92(s2)
 162:	4509                	c.li	a0,2
 164:	00000097          	auipc	ra,0x0
 168:	000080e7          	jalr	ra,0(ra) # 164 <.L42+0x14>

0000016c <.LVL87>:
 16c:	c919                	c.beqz	a0,182 <.L44>

0000016e <.LBB393>:
 16e:	01092603          	lw	a2,16(s2)
 172:	85d2                	c.mv	a1,s4
 174:	855a                	c.mv	a0,s6
 176:	02860613          	addi	a2,a2,40

0000017a <.LVL89>:
 17a:	00000097          	auipc	ra,0x0
 17e:	000080e7          	jalr	ra,0(ra) # 17a <.LVL89>

00000182 <.L44>:
 182:	4581                	c.li	a1,0
 184:	8552                	c.mv	a0,s4
 186:	00000097          	auipc	ra,0x0
 18a:	000080e7          	jalr	ra,0(ra) # 186 <.L44+0x4>

0000018e <.L62>:
 18e:	0fe9f593          	andi	a1,s3,254
 192:	8526                	c.mv	a0,s1
 194:	00000097          	auipc	ra,0x0
 198:	000080e7          	jalr	ra,0(ra) # 194 <.L62+0x6>

0000019c <.LBE396>:
 19c:	0a0901a3          	sb	zero,163(s2)

000001a0 <.L31>:
 1a0:	50f2                	c.lwsp	ra,60(sp)
 1a2:	5462                	c.lwsp	s0,56(sp)
 1a4:	54d2                	c.lwsp	s1,52(sp)
 1a6:	5942                	c.lwsp	s2,48(sp)

000001a8 <.LVL94>:
 1a8:	59b2                	c.lwsp	s3,44(sp)
 1aa:	5a22                	c.lwsp	s4,40(sp)
 1ac:	5a92                	c.lwsp	s5,36(sp)
 1ae:	5b02                	c.lwsp	s6,32(sp)
 1b0:	4bf2                	c.lwsp	s7,28(sp)
 1b2:	6121                	c.addi16sp	sp,64
 1b4:	8082                	c.jr	ra

000001b6 <.L39>:
 1b6:	017407b3          	add	a5,s0,s7
 1ba:	439c                	c.lw	a5,0(a5)
 1bc:	0a57c783          	lbu	a5,165(a5)
 1c0:	8ba1                	c.andi	a5,8
 1c2:	e3b1                	c.bnez	a5,206 <.L33>
 1c4:	85a6                	c.mv	a1,s1
 1c6:	10200513          	addi	a0,zero,258
 1ca:	00000097          	auipc	ra,0x0
 1ce:	000080e7          	jalr	ra,0(ra) # 1ca <.L39+0x14>

000001d2 <.LVL96>:
 1d2:	bf75                	c.j	18e <.L62>

000001d4 <.L32>:
 1d4:	0029f793          	andi	a5,s3,2
 1d8:	c79d                	c.beqz	a5,206 <.L33>
 1da:	c695                	c.beqz	a3,206 <.L33>
 1dc:	000aa783          	lw	a5,0(s5)
 1e0:	0a57c783          	lbu	a5,165(a5)
 1e4:	8ba1                	c.andi	a5,8
 1e6:	e385                	c.bnez	a5,206 <.L33>
 1e8:	0a494703          	lbu	a4,164(s2)
 1ec:	478d                	c.li	a5,3
 1ee:	faf719e3          	bne	a4,a5,1a0 <.L31>

000001f2 <.LBB400>:
 1f2:	0fd9f593          	andi	a1,s3,253
 1f6:	8526                	c.mv	a0,s1
 1f8:	00000097          	auipc	ra,0x0
 1fc:	000080e7          	jalr	ra,0(ra) # 1f8 <.LBB400+0x6>

00000200 <.LBE400>:
 200:	0a090223          	sb	zero,164(s2)
 204:	bf71                	c.j	1a0 <.L31>

00000206 <.L33>:
 206:	945e                	c.add	s0,s7
 208:	401c                	c.lw	a5,0(s0)
 20a:	0a57c783          	lbu	a5,165(a5)
 20e:	8ba1                	c.andi	a5,8
 210:	dbc1                	c.beqz	a5,1a0 <.L31>
 212:	5462                	c.lwsp	s0,56(sp)
 214:	50f2                	c.lwsp	ra,60(sp)
 216:	54d2                	c.lwsp	s1,52(sp)
 218:	5942                	c.lwsp	s2,48(sp)

0000021a <.LVL101>:
 21a:	59b2                	c.lwsp	s3,44(sp)

0000021c <.LVL102>:
 21c:	5a92                	c.lwsp	s5,36(sp)
 21e:	5b02                	c.lwsp	s6,32(sp)
 220:	4bf2                	c.lwsp	s7,28(sp)
 222:	8552                	c.mv	a0,s4
 224:	5a22                	c.lwsp	s4,40(sp)
 226:	03d00593          	addi	a1,zero,61
 22a:	6121                	c.addi16sp	sp,64
 22c:	00000317          	auipc	t1,0x0
 230:	00030067          	jalr	zero,0(t1) # 22c <.LVL102+0x10>

Disassembly of section .text.llcp_reject_ind_ext_handler:

00000000 <llcp_reject_ind_ext_handler>:
   0:	1141                	c.addi	sp,-16
   2:	c606                	c.swsp	ra,12(sp)
   4:	0026c603          	lbu	a2,2(a3)

00000008 <.LVL105>:
   8:	4685                	c.li	a3,1

0000000a <.LVL106>:
   a:	00000097          	auipc	ra,0x0
   e:	000080e7          	jalr	ra,0(ra) # a <.LVL106>

00000012 <.LVL107>:
  12:	40b2                	c.lwsp	ra,12(sp)
  14:	4501                	c.li	a0,0
  16:	0141                	c.addi	sp,16
  18:	8082                	c.jr	ra

Disassembly of section .text.llcp_reject_ind_handler:

00000000 <llcp_reject_ind_handler>:
   0:	1141                	c.addi	sp,-16
   2:	c606                	c.swsp	ra,12(sp)
   4:	0016c603          	lbu	a2,1(a3)

00000008 <.LVL109>:
   8:	4681                	c.li	a3,0

0000000a <.LVL110>:
   a:	00000097          	auipc	ra,0x0
   e:	000080e7          	jalr	ra,0(ra) # a <.LVL110>

00000012 <.LVL111>:
  12:	40b2                	c.lwsp	ra,12(sp)
  14:	4501                	c.li	a0,0
  16:	0141                	c.addi	sp,16
  18:	8082                	c.jr	ra

Disassembly of section .text.llcp_pause_enc_req_handler:

00000000 <llcp_pause_enc_req_handler>:
   0:	1101                	c.addi	sp,-32
   2:	ca26                	c.swsp	s1,20(sp)
   4:	84aa                	c.mv	s1,a0
   6:	852e                	c.mv	a0,a1

00000008 <.LVL113>:
   8:	cc22                	c.swsp	s0,24(sp)
   a:	c84a                	c.swsp	s2,16(sp)
   c:	c64e                	c.swsp	s3,12(sp)
   e:	ce06                	c.swsp	ra,28(sp)
  10:	c452                	c.swsp	s4,8(sp)
  12:	c256                	c.swsp	s5,4(sp)
  14:	842e                	c.mv	s0,a1
  16:	00000097          	auipc	ra,0x0
  1a:	000080e7          	jalr	ra,0(ra) # 16 <.LVL113+0xe>

0000001e <.LVL114>:
  1e:	000007b7          	lui	a5,0x0
  22:	00078713          	addi	a4,a5,0 # 0 <llcp_pause_enc_req_handler>
  26:	00249993          	slli	s3,s1,0x2
  2a:	974e                	c.add	a4,s3
  2c:	00072903          	lw	s2,0(a4)

00000030 <.LVL115>:
  30:	0a594703          	lbu	a4,165(s2)
  34:	8b21                	c.andi	a4,8
  36:	c315                	c.beqz	a4,5a <.L68>
  38:	03d00593          	addi	a1,zero,61
  3c:	8526                	c.mv	a0,s1

0000003e <.LVL116>:
  3e:	00000097          	auipc	ra,0x0
  42:	000080e7          	jalr	ra,0(ra) # 3e <.LVL116>

00000046 <.L69>:
  46:	40f2                	c.lwsp	ra,28(sp)
  48:	4462                	c.lwsp	s0,24(sp)
  4a:	44d2                	c.lwsp	s1,20(sp)
  4c:	4942                	c.lwsp	s2,16(sp)

0000004e <.LVL118>:
  4e:	49b2                	c.lwsp	s3,12(sp)
  50:	4a22                	c.lwsp	s4,8(sp)
  52:	4a92                	c.lwsp	s5,4(sp)
  54:	4501                	c.li	a0,0
  56:	6105                	c.addi16sp	sp,32
  58:	8082                	c.jr	ra

0000005a <.L68>:
  5a:	8a2a                	c.mv	s4,a0
  5c:	8526                	c.mv	a0,s1

0000005e <.LVL120>:
  5e:	00078a93          	addi	s5,a5,0
  62:	00000097          	auipc	ra,0x0
  66:	000080e7          	jalr	ra,0(ra) # 62 <.LVL120+0x4>

0000006a <.LVL121>:
  6a:	4791                	c.li	a5,4
  6c:	fcf51de3          	bne	a0,a5,46 <.L69>

00000070 <.LBB402>:
  70:	002a7793          	andi	a5,s4,2
  74:	fbe9                	c.bnez	a5,46 <.L69>

00000076 <.LBB404>:
  76:	002a6493          	ori	s1,s4,2
  7a:	0ff4f493          	andi	s1,s1,255

0000007e <.LVL124>:
  7e:	85a6                	c.mv	a1,s1
  80:	8522                	c.mv	a0,s0
  82:	00000097          	auipc	ra,0x0
  86:	000080e7          	jalr	ra,0(ra) # 82 <.LVL124+0x4>

0000008a <.LBB414>:
  8a:	001a7793          	andi	a5,s4,1
  8e:	cb81                	c.beqz	a5,9e <.L70>
  90:	85a2                	c.mv	a1,s0
  92:	10200513          	addi	a0,zero,258
  96:	00000097          	auipc	ra,0x0
  9a:	000080e7          	jalr	ra,0(ra) # 96 <.LBB414+0xc>

0000009e <.L70>:
  9e:	85a6                	c.mv	a1,s1
  a0:	8522                	c.mv	a0,s0
  a2:	00000097          	auipc	ra,0x0
  a6:	000080e7          	jalr	ra,0(ra) # a2 <.L70+0x4>

000000aa <.LBB409>:
  aa:	006a6593          	ori	a1,s4,6
  ae:	0ff5f593          	andi	a1,a1,255
  b2:	8522                	c.mv	a0,s0
  b4:	00000097          	auipc	ra,0x0
  b8:	000080e7          	jalr	ra,0(ra) # b4 <.LBB409+0xa>

000000bc <.LBE409>:
  bc:	4795                	c.li	a5,5
  be:	0af90223          	sb	a5,164(s2)

000000c2 <.LBB411>:
  c2:	300024f3          	csrrs	s1,mstatus,zero

000000c6 <.LBB413>:
  c6:	300477f3          	csrrci	a5,mstatus,8

000000ca <.LBE413>:
  ca:	013a87b3          	add	a5,s5,s3
  ce:	4398                	c.lw	a4,0(a5)
  d0:	0a574783          	lbu	a5,165(a4)
  d4:	00c7e793          	ori	a5,a5,12
  d8:	0af702a3          	sb	a5,165(a4)
  dc:	01092503          	lw	a0,16(s2)
  e0:	00000097          	auipc	ra,0x0
  e4:	000080e7          	jalr	ra,0(ra) # e0 <.LBE413+0x16>

000000e8 <.LVL131>:
  e8:	30049073          	csrrw	zero,mstatus,s1

000000ec <.LBE411>:
  ec:	c901                	c.beqz	a0,fc <.L71>
  ee:	05c95783          	lhu	a5,92(s2)
  f2:	0047e793          	ori	a5,a5,4
  f6:	04f91e23          	sh	a5,92(s2)
  fa:	b7b1                	c.j	46 <.L69>

000000fc <.L71>:
  fc:	8622                	c.mv	a2,s0
  fe:	85a2                	c.mv	a1,s0
 100:	10600513          	addi	a0,zero,262

00000104 <.LVL132>:
 104:	00000097          	auipc	ra,0x0
 108:	000080e7          	jalr	ra,0(ra) # 104 <.LVL132>

0000010c <.LVL133>:
 10c:	bf2d                	c.j	46 <.L69>

Disassembly of section .text.llcp_start_enc_req_handler:

00000000 <llcp_start_enc_req_handler>:
   0:	1101                	c.addi	sp,-32
   2:	c64e                	c.swsp	s3,12(sp)
   4:	89aa                	c.mv	s3,a0
   6:	852e                	c.mv	a0,a1

00000008 <.LVL135>:
   8:	cc22                	c.swsp	s0,24(sp)
   a:	ca26                	c.swsp	s1,20(sp)
   c:	c84a                	c.swsp	s2,16(sp)
   e:	ce06                	c.swsp	ra,28(sp)
  10:	892e                	c.mv	s2,a1
  12:	00000097          	auipc	ra,0x0
  16:	000080e7          	jalr	ra,0(ra) # 12 <.LVL135+0xa>

0000001a <.LVL136>:
  1a:	000007b7          	lui	a5,0x0
  1e:	00299713          	slli	a4,s3,0x2
  22:	00078793          	addi	a5,a5,0 # 0 <llcp_start_enc_req_handler>
  26:	97ba                	c.add	a5,a4
  28:	4380                	c.lw	s0,0(a5)
  2a:	84aa                	c.mv	s1,a0

0000002c <.LVL137>:
  2c:	0a544783          	lbu	a5,165(s0)
  30:	8ba1                	c.andi	a5,8
  32:	cf91                	c.beqz	a5,4e <.L77>
  34:	0a344783          	lbu	a5,163(s0)
  38:	17c9                	c.addi	a5,-14
  3a:	0fd7f793          	andi	a5,a5,253
  3e:	cb81                	c.beqz	a5,4e <.L77>
  40:	03d00593          	addi	a1,zero,61
  44:	854e                	c.mv	a0,s3
  46:	00000097          	auipc	ra,0x0
  4a:	000080e7          	jalr	ra,0(ra) # 46 <.LVL137+0x1a>

0000004e <.L77>:
  4e:	8885                	c.andi	s1,1

00000050 <.LVL139>:
  50:	0a344783          	lbu	a5,163(s0)
  54:	4739                	c.li	a4,14
  56:	c095                	c.beqz	s1,7a <.L78>
  58:	02e78363          	beq	a5,a4,7e <.L79>
  5c:	4741                	c.li	a4,16
  5e:	02e79363          	bne	a5,a4,84 <.L80>

00000062 <.L81>:
  62:	47c5                	c.li	a5,17
  64:	0af401a3          	sb	a5,163(s0)
  68:	864a                	c.mv	a2,s2
  6a:	85ca                	c.mv	a1,s2
  6c:	10600513          	addi	a0,zero,262
  70:	00000097          	auipc	ra,0x0
  74:	000080e7          	jalr	ra,0(ra) # 70 <.L81+0xe>

00000078 <.LVL140>:
  78:	a031                	c.j	84 <.L80>

0000007a <.L78>:
  7a:	fee794e3          	bne	a5,a4,62 <.L81>

0000007e <.L79>:
  7e:	47bd                	c.li	a5,15
  80:	0af401a3          	sb	a5,163(s0)

00000084 <.L80>:
  84:	40f2                	c.lwsp	ra,28(sp)
  86:	4462                	c.lwsp	s0,24(sp)

00000088 <.LVL141>:
  88:	44d2                	c.lwsp	s1,20(sp)
  8a:	4942                	c.lwsp	s2,16(sp)
  8c:	49b2                	c.lwsp	s3,12(sp)
  8e:	4501                	c.li	a0,0
  90:	6105                	c.addi16sp	sp,32
  92:	8082                	c.jr	ra

Disassembly of section .text.llcp_enc_req_handler:

00000000 <llcp_enc_req_handler>:
   0:	1101                	c.addi	sp,-32
   2:	c452                	c.swsp	s4,8(sp)
   4:	8a2a                	c.mv	s4,a0
   6:	852e                	c.mv	a0,a1

00000008 <.LVL143>:
   8:	cc22                	c.swsp	s0,24(sp)
   a:	ca26                	c.swsp	s1,20(sp)
   c:	c84a                	c.swsp	s2,16(sp)
   e:	c64e                	c.swsp	s3,12(sp)
  10:	c256                	c.swsp	s5,4(sp)
  12:	c05a                	c.swsp	s6,0(sp)
  14:	ce06                	c.swsp	ra,28(sp)
  16:	892e                	c.mv	s2,a1
  18:	89b6                	c.mv	s3,a3
  1a:	00000097          	auipc	ra,0x0
  1e:	000080e7          	jalr	ra,0(ra) # 1a <.LVL143+0x12>

00000022 <.LVL144>:
  22:	00000737          	lui	a4,0x0
  26:	00070793          	addi	a5,a4,0 # 0 <llcp_enc_req_handler>
  2a:	002a1a93          	slli	s5,s4,0x2
  2e:	97d6                	c.add	a5,s5
  30:	4380                	c.lw	s0,0(a5)
  32:	84aa                	c.mv	s1,a0

00000034 <.LVL145>:
  34:	00070b13          	addi	s6,a4,0
  38:	0a544783          	lbu	a5,165(s0)
  3c:	8ba1                	c.andi	a5,8
  3e:	cb8d                	c.beqz	a5,70 <.L90>
  40:	0a444703          	lbu	a4,164(s0)
  44:	479d                	c.li	a5,7
  46:	02f70563          	beq	a4,a5,70 <.L90>
  4a:	03d00593          	addi	a1,zero,61
  4e:	8552                	c.mv	a0,s4
  50:	00000097          	auipc	ra,0x0
  54:	000080e7          	jalr	ra,0(ra) # 50 <.LVL145+0x1c>

00000058 <.LVL146>:
  58:	4781                	c.li	a5,0

0000005a <.L89>:
  5a:	40f2                	c.lwsp	ra,28(sp)
  5c:	4462                	c.lwsp	s0,24(sp)

0000005e <.LVL148>:
  5e:	44d2                	c.lwsp	s1,20(sp)
  60:	4942                	c.lwsp	s2,16(sp)
  62:	49b2                	c.lwsp	s3,12(sp)
  64:	4a22                	c.lwsp	s4,8(sp)
  66:	4a92                	c.lwsp	s5,4(sp)
  68:	4b02                	c.lwsp	s6,0(sp)
  6a:	853e                	c.mv	a0,a5
  6c:	6105                	c.addi16sp	sp,32
  6e:	8082                	c.jr	ra

00000070 <.L90>:
  70:	8552                	c.mv	a0,s4
  72:	00000097          	auipc	ra,0x0
  76:	000080e7          	jalr	ra,0(ra) # 72 <.L90+0x2>

0000007a <.LVL150>:
  7a:	4711                	c.li	a4,4
  7c:	4781                	c.li	a5,0
  7e:	fce51ee3          	bne	a0,a4,5a <.L89>

00000082 <.LBB417>:
  82:	0024f713          	andi	a4,s1,2
  86:	c711                	c.beqz	a4,92 <.L92>
  88:	0a444683          	lbu	a3,164(s0)
  8c:	471d                	c.li	a4,7
  8e:	fce696e3          	bne	a3,a4,5a <.L89>

00000092 <.L92>:
  92:	0024e593          	ori	a1,s1,2
  96:	854a                	c.mv	a0,s2
  98:	0ff5f593          	andi	a1,a1,255
  9c:	00000097          	auipc	ra,0x0
  a0:	000080e7          	jalr	ra,0(ra) # 9c <.L92+0xa>

000000a4 <.LBB422>:
  a4:	0064e593          	ori	a1,s1,6
  a8:	854a                	c.mv	a0,s2
  aa:	0ff5f593          	andi	a1,a1,255
  ae:	00000097          	auipc	ra,0x0
  b2:	000080e7          	jalr	ra,0(ra) # ae <.LBB422+0xa>

000000b6 <.LBE422>:
  b6:	47a1                	c.li	a5,8

000000b8 <.LBB424>:
  b8:	9ada                	c.add	s5,s6

000000ba <.LBE424>:
  ba:	0af40223          	sb	a5,164(s0)

000000be <.LBB428>:
  be:	000aa783          	lw	a5,0(s5)

000000c2 <.LBE428>:
  c2:	19f9                	c.addi	s3,-2

000000c4 <.LVL157>:
  c4:	85ca                	c.mv	a1,s2

000000c6 <.LBB429>:
  c6:	0137a423          	sw	s3,8(a5)

000000ca <.LBE429>:
  ca:	10200513          	addi	a0,zero,258
  ce:	00000097          	auipc	ra,0x0
  d2:	000080e7          	jalr	ra,0(ra) # ce <.LBE429+0x4>

000000d6 <.LBB430>:
  d6:	300029f3          	csrrs	s3,mstatus,zero

000000da <.LBB432>:
  da:	300477f3          	csrrci	a5,mstatus,8

000000de <.LBE432>:
  de:	000aa703          	lw	a4,0(s5)
  e2:	0a574783          	lbu	a5,165(a4)
  e6:	00c7e793          	ori	a5,a5,12
  ea:	0af702a3          	sb	a5,165(a4)
  ee:	4808                	c.lw	a0,16(s0)
  f0:	00000097          	auipc	ra,0x0
  f4:	000080e7          	jalr	ra,0(ra) # f0 <.LBE432+0x12>

000000f8 <.LVL162>:
  f8:	30099073          	csrrw	zero,mstatus,s3

000000fc <.LBE430>:
  fc:	c909                	c.beqz	a0,10e <.L93>
  fe:	05c45783          	lhu	a5,92(s0)
 102:	0047e793          	ori	a5,a5,4
 106:	04f41e23          	sh	a5,92(s0)

0000010a <.L103>:
 10a:	4785                	c.li	a5,1
 10c:	b7b9                	c.j	5a <.L89>

0000010e <.L93>:
 10e:	864a                	c.mv	a2,s2
 110:	85ca                	c.mv	a1,s2
 112:	10600513          	addi	a0,zero,262

00000116 <.LVL165>:
 116:	00000097          	auipc	ra,0x0
 11a:	000080e7          	jalr	ra,0(ra) # 116 <.LVL165>

0000011e <.LVL166>:
 11e:	b7f5                	c.j	10a <.L103>

Disassembly of section .text.llcp_unknown_rsp_handler:

00000000 <llcp_unknown_rsp_handler>:
   0:	7179                	c.addi16sp	sp,-48
   2:	d04a                	c.swsp	s2,32(sp)
   4:	892a                	c.mv	s2,a0
   6:	852e                	c.mv	a0,a1

00000008 <.LVL168>:
   8:	d422                	c.swsp	s0,40(sp)
   a:	d226                	c.swsp	s1,36(sp)
   c:	ce4e                	c.swsp	s3,28(sp)
   e:	cc52                	c.swsp	s4,24(sp)
  10:	ca56                	c.swsp	s5,20(sp)
  12:	c636                	c.swsp	a3,12(sp)
  14:	d606                	c.swsp	ra,44(sp)
  16:	84ae                	c.mv	s1,a1
  18:	00000097          	auipc	ra,0x0
  1c:	000080e7          	jalr	ra,0(ra) # 18 <.LVL168+0x10>

00000020 <.LVL169>:
  20:	000007b7          	lui	a5,0x0
  24:	00078713          	addi	a4,a5,0 # 0 <llcp_unknown_rsp_handler>
  28:	00291a93          	slli	s5,s2,0x2
  2c:	9756                	c.add	a4,s5
  2e:	4300                	c.lw	s0,0(a4)
  30:	89aa                	c.mv	s3,a0

00000032 <.LVL170>:
  32:	00078a13          	addi	s4,a5,0
  36:	0a544703          	lbu	a4,165(s0)
  3a:	46b2                	c.lwsp	a3,12(sp)
  3c:	00877613          	andi	a2,a4,8
  40:	c61d                	c.beqz	a2,6e <.L105>
  42:	0a344603          	lbu	a2,163(s0)
  46:	47b5                	c.li	a5,13
  48:	02f60363          	beq	a2,a5,6e <.L105>
  4c:	03d00593          	addi	a1,zero,61
  50:	854a                	c.mv	a0,s2

00000052 <.LVL171>:
  52:	00000097          	auipc	ra,0x0
  56:	000080e7          	jalr	ra,0(ra) # 52 <.LVL171>

0000005a <.L106>:
  5a:	50b2                	c.lwsp	ra,44(sp)
  5c:	5422                	c.lwsp	s0,40(sp)

0000005e <.LVL173>:
  5e:	5492                	c.lwsp	s1,36(sp)
  60:	5902                	c.lwsp	s2,32(sp)
  62:	49f2                	c.lwsp	s3,28(sp)
  64:	4a62                	c.lwsp	s4,24(sp)
  66:	4ad2                	c.lwsp	s5,20(sp)
  68:	4501                	c.li	a0,0
  6a:	6145                	c.addi16sp	sp,48

0000006c <.LVL174>:
  6c:	8082                	c.jr	ra

0000006e <.L105>:
  6e:	0019f793          	andi	a5,s3,1
  72:	d7e5                	c.beqz	a5,5a <.L106>
  74:	0a344783          	lbu	a5,163(s0)
  78:	4631                	c.li	a2,12
  7a:	17fd                	c.addi	a5,-1
  7c:	0ff7f793          	andi	a5,a5,255
  80:	fcf66de3          	bltu	a2,a5,5a <.L106>
  84:	00000637          	lui	a2,0x0
  88:	078a                	c.slli	a5,0x2
  8a:	00060613          	addi	a2,a2,0 # 0 <llcp_unknown_rsp_handler>
  8e:	97b2                	c.add	a5,a2
  90:	439c                	c.lw	a5,0(a5)
  92:	8782                	c.jr	a5

00000094 <.L107>:
  94:	8b41                	c.andi	a4,16
  96:	f371                	c.bnez	a4,5a <.L106>
  98:	0a0402a3          	sb	zero,165(s0)
  9c:	4669                	c.li	a2,26
  9e:	4581                	c.li	a1,0
  a0:	854a                	c.mv	a0,s2

000000a2 <.LVL176>:
  a2:	00000097          	auipc	ra,0x0
  a6:	000080e7          	jalr	ra,0(ra) # a2 <.LVL176>

000000aa <.L131>:
  aa:	0fe9f593          	andi	a1,s3,254
  ae:	8526                	c.mv	a0,s1
  b0:	00000097          	auipc	ra,0x0
  b4:	000080e7          	jalr	ra,0(ra) # b0 <.L131+0x6>

000000b8 <.LBE437>:
  b8:	0a0401a3          	sb	zero,163(s0)
  bc:	bf79                	c.j	5a <.L106>

000000be <.L112>:
  be:	0016c703          	lbu	a4,1(a3)
  c2:	47b9                	c.li	a5,14
  c4:	f8f71be3          	bne	a4,a5,5a <.L106>
  c8:	85a6                	c.mv	a1,s1
  ca:	10200513          	addi	a0,zero,258

000000ce <.LVL180>:
  ce:	00000097          	auipc	ra,0x0
  d2:	000080e7          	jalr	ra,0(ra) # ce <.LVL180>

000000d6 <.LVL181>:
  d6:	06940613          	addi	a2,s0,105
  da:	85ca                	c.mv	a1,s2
  dc:	4569                	c.li	a0,26
  de:	00000097          	auipc	ra,0x0
  e2:	000080e7          	jalr	ra,0(ra) # de <.LVL181+0x8>

000000e6 <.LVL182>:
  e6:	b7d1                	c.j	aa <.L131>

000000e8 <.L109>:
  e8:	0016c703          	lbu	a4,1(a3)
  ec:	47bd                	c.li	a5,15
  ee:	f6f716e3          	bne	a4,a5,5a <.L106>
  f2:	85a6                	c.mv	a1,s1
  f4:	10200513          	addi	a0,zero,258

000000f8 <.LVL184>:
  f8:	00000097          	auipc	ra,0x0
  fc:	000080e7          	jalr	ra,0(ra) # f8 <.LVL184>

00000100 <.LVL185>:
 100:	854a                	c.mv	a0,s2
 102:	0a040323          	sb	zero,166(s0)
 106:	00000097          	auipc	ra,0x0
 10a:	000080e7          	jalr	ra,0(ra) # 106 <.LVL185+0x6>

0000010e <.LVL186>:
 10e:	478d                	c.li	a5,3
 110:	00f51e63          	bne	a0,a5,12c <.L113>

00000114 <.LBB439>:
 114:	015a07b3          	add	a5,s4,s5
 118:	439c                	c.lw	a5,0(a5)
 11a:	4388                	c.lw	a0,0(a5)

0000011c <.LBE440>:
 11c:	4789                	c.li	a5,2
 11e:	00f50023          	sb	a5,0(a0)
 122:	00000097          	auipc	ra,0x0
 126:	000080e7          	jalr	ra,0(ra) # 122 <.LBE440+0x6>

0000012a <.LBE439>:
 12a:	bf05                	c.j	5a <.L106>

0000012c <.L113>:
 12c:	05c45783          	lhu	a5,92(s0)
 130:	0407f713          	andi	a4,a5,64
 134:	c705                	c.beqz	a4,15c <.L115>
 136:	fbf7f793          	andi	a5,a5,-65
 13a:	04f41e23          	sh	a5,92(s0)
 13e:	4509                	c.li	a0,2
 140:	00000097          	auipc	ra,0x0
 144:	000080e7          	jalr	ra,0(ra) # 140 <.L113+0x14>

00000148 <.LVL190>:
 148:	c911                	c.beqz	a0,15c <.L115>

0000014a <.LBB442>:
 14a:	4810                	c.lw	a2,16(s0)
 14c:	85ca                	c.mv	a1,s2
 14e:	4569                	c.li	a0,26
 150:	02860613          	addi	a2,a2,40

00000154 <.LVL192>:
 154:	00000097          	auipc	ra,0x0
 158:	000080e7          	jalr	ra,0(ra) # 154 <.LVL192>

0000015c <.L115>:
 15c:	4581                	c.li	a1,0
 15e:	854a                	c.mv	a0,s2
 160:	00000097          	auipc	ra,0x0
 164:	000080e7          	jalr	ra,0(ra) # 160 <.L115+0x4>

00000168 <.LBB443>:
 168:	b789                	c.j	aa <.L131>

0000016a <.L111>:
 16a:	0016c703          	lbu	a4,1(a3)
 16e:	47d1                	c.li	a5,20
 170:	eef715e3          	bne	a4,a5,5a <.L106>
 174:	10200513          	addi	a0,zero,258

00000178 <.LVL196>:
 178:	85a6                	c.mv	a1,s1
 17a:	00000097          	auipc	ra,0x0
 17e:	000080e7          	jalr	ra,0(ra) # 17a <.LVL196+0x2>

00000182 <.LVL197>:
 182:	4785                	c.li	a5,1
 184:	04f40923          	sb	a5,82(s0)
 188:	4519                	c.li	a0,6
 18a:	00000097          	auipc	ra,0x0
 18e:	000080e7          	jalr	ra,0(ra) # 18a <.LVL197+0x8>

00000192 <.LVL198>:
 192:	dd01                	c.beqz	a0,aa <.L131>
 194:	05344783          	lbu	a5,83(s0)
 198:	8b89                	c.andi	a5,2
 19a:	fb81                	c.bnez	a5,aa <.L131>

0000019c <.LBB445>:
 19c:	6505                	c.lui	a0,0x1
 19e:	46b1                	c.li	a3,12
 1a0:	03e00613          	addi	a2,zero,62
 1a4:	85ca                	c.mv	a1,s2
 1a6:	80450513          	addi	a0,a0,-2044 # 804 <.LASF837>
 1aa:	00000097          	auipc	ra,0x0
 1ae:	000080e7          	jalr	ra,0(ra) # 1aa <.LBB445+0xe>

000001b2 <.LVL199>:
 1b2:	471d                	c.li	a4,7
 1b4:	00e50023          	sb	a4,0(a0)

000001b8 <.LBB446>:
 1b8:	01251123          	sh	s2,2(a0)
 1bc:	04845703          	lhu	a4,72(s0)
 1c0:	00e51423          	sh	a4,8(a0)
 1c4:	05045703          	lhu	a4,80(s0)
 1c8:	00e51523          	sh	a4,10(a0)
 1cc:	04645703          	lhu	a4,70(s0)
 1d0:	00e51223          	sh	a4,4(a0)
 1d4:	04e45703          	lhu	a4,78(s0)
 1d8:	00e51323          	sh	a4,6(a0)
 1dc:	00000097          	auipc	ra,0x0
 1e0:	000080e7          	jalr	ra,0(ra) # 1dc <.LBB446+0x24>

000001e4 <.LVL201>:
 1e4:	05344783          	lbu	a5,83(s0)
 1e8:	0027e793          	ori	a5,a5,2
 1ec:	04f409a3          	sb	a5,83(s0)

000001f0 <.LBB447>:
 1f0:	bd6d                	c.j	aa <.L131>

000001f2 <.L110>:
 1f2:	0016c703          	lbu	a4,1(a3)
 1f6:	47c9                	c.li	a5,18
 1f8:	e6f711e3          	bne	a4,a5,5a <.L106>

000001fc <.LBB449>:
 1fc:	0fe9f593          	andi	a1,s3,254
 200:	8526                	c.mv	a0,s1
 202:	00000097          	auipc	ra,0x0
 206:	000080e7          	jalr	ra,0(ra) # 202 <.LBB449+0x6>

0000020a <.LBE449>:
 20a:	85a6                	c.mv	a1,s1
 20c:	0a0401a3          	sb	zero,163(s0)
 210:	10200513          	addi	a0,zero,258
 214:	00000097          	auipc	ra,0x0
 218:	000080e7          	jalr	ra,0(ra) # 214 <.LBE449+0xa>

0000021c <.LVL206>:
 21c:	bd3d                	c.j	5a <.L106>

Disassembly of section .text.llc_llcp_version_ind_pdu_send:

00000000 <llc_llcp_version_ind_pdu_send>:
   0:	07af17b7          	lui	a5,0x7af1
   4:	1101                	c.addi	sp,-32
   6:	90c78793          	addi	a5,a5,-1780 # 7af090c <.LASF870+0x7aebc56>
   a:	c43e                	c.swsp	a5,8(sp)
   c:	002c                	c.addi4spn	a1,sp,8
   e:	32100793          	addi	a5,zero,801
  12:	4631                	c.li	a2,12
  14:	0ff57513          	andi	a0,a0,255

00000018 <.LVL208>:
  18:	ce06                	c.swsp	ra,28(sp)
  1a:	00f11623          	sh	a5,12(sp)
  1e:	00000097          	auipc	ra,0x0
  22:	000080e7          	jalr	ra,0(ra) # 1e <.LVL208+0x6>

00000026 <.LVL209>:
  26:	40f2                	c.lwsp	ra,28(sp)
  28:	6105                	c.addi16sp	sp,32
  2a:	8082                	c.jr	ra

Disassembly of section .text.llcp_vers_ind_handler:

00000000 <llcp_vers_ind_handler>:
   0:	7179                	c.addi16sp	sp,-48
   2:	d226                	c.swsp	s1,36(sp)
   4:	84aa                	c.mv	s1,a0
   6:	852e                	c.mv	a0,a1

00000008 <.LVL211>:
   8:	d422                	c.swsp	s0,40(sp)
   a:	d04a                	c.swsp	s2,32(sp)
   c:	c636                	c.swsp	a3,12(sp)
   e:	d606                	c.swsp	ra,44(sp)
  10:	ce4e                	c.swsp	s3,28(sp)
  12:	892e                	c.mv	s2,a1
  14:	00000097          	auipc	ra,0x0
  18:	000080e7          	jalr	ra,0(ra) # 14 <.LVL211+0xc>

0000001c <.LVL212>:
  1c:	000007b7          	lui	a5,0x0
  20:	00249713          	slli	a4,s1,0x2
  24:	00078793          	addi	a5,a5,0 # 0 <llcp_vers_ind_handler>
  28:	97ba                	c.add	a5,a4
  2a:	4380                	c.lw	s0,0(a5)

0000002c <.LVL213>:
  2c:	46b2                	c.lwsp	a3,12(sp)
  2e:	0a544783          	lbu	a5,165(s0)
  32:	8ba1                	c.andi	a5,8
  34:	c385                	c.beqz	a5,54 <.L135>
  36:	03d00593          	addi	a1,zero,61
  3a:	8526                	c.mv	a0,s1

0000003c <.LVL214>:
  3c:	00000097          	auipc	ra,0x0
  40:	000080e7          	jalr	ra,0(ra) # 3c <.LVL214>

00000044 <.L136>:
  44:	50b2                	c.lwsp	ra,44(sp)
  46:	5422                	c.lwsp	s0,40(sp)

00000048 <.LVL216>:
  48:	5492                	c.lwsp	s1,36(sp)
  4a:	5902                	c.lwsp	s2,32(sp)
  4c:	49f2                	c.lwsp	s3,28(sp)
  4e:	4501                	c.li	a0,0
  50:	6145                	c.addi16sp	sp,48

00000052 <.LVL217>:
  52:	8082                	c.jr	ra

00000054 <.L135>:
  54:	0016c603          	lbu	a2,1(a3)
  58:	05c45783          	lhu	a5,92(s0)
  5c:	89aa                	c.mv	s3,a0
  5e:	02c40e23          	sb	a2,60(s0)
  62:	0026d603          	lhu	a2,2(a3)
  66:	4017d713          	srai	a4,a5,0x1
  6a:	0027e793          	ori	a5,a5,2
  6e:	02c41f23          	sh	a2,62(s0)
  72:	0046d683          	lhu	a3,4(a3)
  76:	04f41e23          	sh	a5,92(s0)
  7a:	00157793          	andi	a5,a0,1
  7e:	04d41023          	sh	a3,64(s0)
  82:	8b05                	c.andi	a4,1

00000084 <.LBB452>:
  84:	cf8d                	c.beqz	a5,be <.L137>
  86:	0a344683          	lbu	a3,163(s0)
  8a:	4789                	c.li	a5,2
  8c:	02f69963          	bne	a3,a5,be <.L137>
  90:	85ca                	c.mv	a1,s2
  92:	10200513          	addi	a0,zero,258

00000096 <.LVL220>:
  96:	00000097          	auipc	ra,0x0
  9a:	000080e7          	jalr	ra,0(ra) # 96 <.LVL220>

0000009e <.LVL221>:
  9e:	85a6                	c.mv	a1,s1
  a0:	4501                	c.li	a0,0
  a2:	00000097          	auipc	ra,0x0
  a6:	000080e7          	jalr	ra,0(ra) # a2 <.LVL221+0x4>

000000aa <.LBB454>:
  aa:	0fe9f593          	andi	a1,s3,254

000000ae <.LBE454>:
  ae:	0a0401a3          	sb	zero,163(s0)

000000b2 <.LBB457>:
  b2:	854a                	c.mv	a0,s2
  b4:	00000097          	auipc	ra,0x0
  b8:	000080e7          	jalr	ra,0(ra) # b4 <.LBB457+0x2>

000000bc <.LVL224>:
  bc:	b761                	c.j	44 <.L136>

000000be <.L137>:
  be:	f359                	c.bnez	a4,44 <.L136>
  c0:	8526                	c.mv	a0,s1

000000c2 <.LVL226>:
  c2:	00000097          	auipc	ra,0x0
  c6:	000080e7          	jalr	ra,0(ra) # c2 <.LVL226>

000000ca <.LVL227>:
  ca:	bfad                	c.j	44 <.L136>

Disassembly of section .text.llc_llcp_ch_map_update_pdu_send:

00000000 <llc_llcp_ch_map_update_pdu_send>:
   0:	000007b7          	lui	a5,0x0
   4:	1101                	c.addi	sp,-32
   6:	00251713          	slli	a4,a0,0x2
   a:	00078793          	addi	a5,a5,0 # 0 <llc_llcp_ch_map_update_pdu_send>
   e:	ce06                	c.swsp	ra,28(sp)
  10:	cc22                	c.swsp	s0,24(sp)
  12:	ca26                	c.swsp	s1,20(sp)
  14:	97ba                	c.add	a5,a4
  16:	4384                	c.lw	s1,0(a5)

00000018 <.LVL229>:
  18:	842a                	c.mv	s0,a0
  1a:	4785                	c.li	a5,1
  1c:	4888                	c.lw	a0,16(s1)

0000001e <.LVL230>:
  1e:	4589                	c.li	a1,2
  20:	00f10423          	sb	a5,8(sp)
  24:	02850513          	addi	a0,a0,40
  28:	00000097          	auipc	ra,0x0
  2c:	000080e7          	jalr	ra,0(ra) # 28 <.LVL230+0xa>

00000030 <.LVL231>:
  30:	000007b7          	lui	a5,0x0
  34:	0007a783          	lw	a5,0(a5) # 0 <llc_llcp_ch_map_update_pdu_send>
  38:	00a11723          	sh	a0,14(sp)
  3c:	06348593          	addi	a1,s1,99
  40:	4615                	c.li	a2,5
  42:	00910513          	addi	a0,sp,9
  46:	9782                	c.jalr	a5

00000048 <.LVL232>:
  48:	00814603          	lbu	a2,8(sp)
  4c:	002c                	c.addi4spn	a1,sp,8
  4e:	0ff47513          	andi	a0,s0,255
  52:	00000097          	auipc	ra,0x0
  56:	000080e7          	jalr	ra,0(ra) # 52 <.LVL232+0xa>

0000005a <.LVL233>:
  5a:	40f2                	c.lwsp	ra,28(sp)
  5c:	4462                	c.lwsp	s0,24(sp)
  5e:	44d2                	c.lwsp	s1,20(sp)

00000060 <.LVL234>:
  60:	6105                	c.addi16sp	sp,32
  62:	8082                	c.jr	ra

Disassembly of section .text.llc_llcp_pause_enc_req_pdu_send:

00000000 <llc_llcp_pause_enc_req_pdu_send>:
   0:	00851593          	slli	a1,a0,0x8
   4:	0015e593          	ori	a1,a1,1
   8:	1101                	c.addi	sp,-32
   a:	05c2                	c.slli	a1,0x10
   c:	6605                	c.lui	a2,0x1
   e:	cc22                	c.swsp	s0,24(sp)
  10:	47a9                	c.li	a5,10
  12:	842a                	c.mv	s0,a0
  14:	81c1                	c.srli	a1,0x10
  16:	fa060613          	addi	a2,a2,-96 # fa0 <.LASF394+0xb>
  1a:	10200513          	addi	a0,zero,258

0000001e <.LVL236>:
  1e:	ce06                	c.swsp	ra,28(sp)
  20:	00f10623          	sb	a5,12(sp)
  24:	00000097          	auipc	ra,0x0
  28:	000080e7          	jalr	ra,0(ra) # 24 <.LVL236+0x6>

0000002c <.LVL237>:
  2c:	00c14603          	lbu	a2,12(sp)
  30:	006c                	c.addi4spn	a1,sp,12
  32:	0ff47513          	andi	a0,s0,255
  36:	00000097          	auipc	ra,0x0
  3a:	000080e7          	jalr	ra,0(ra) # 36 <.LVL237+0xa>

0000003e <.LVL238>:
  3e:	40f2                	c.lwsp	ra,28(sp)
  40:	4462                	c.lwsp	s0,24(sp)
  42:	6105                	c.addi16sp	sp,32
  44:	8082                	c.jr	ra

Disassembly of section .text.llc_llcp_pause_enc_rsp_pdu_send:

00000000 <llc_llcp_pause_enc_rsp_pdu_send>:
   0:	05c00713          	addi	a4,zero,92
   4:	02e50733          	mul	a4,a0,a4

00000008 <.LBE458>:
   8:	1101                	c.addi	sp,-32
   a:	47ad                	c.li	a5,11
   c:	00f10623          	sb	a5,12(sp)

00000010 <.LBB462>:
  10:	280087b7          	lui	a5,0x28008
  14:	09278793          	addi	a5,a5,146 # 28008092 <.LASF870+0x280033dc>

00000018 <.LBE462>:
  18:	ce06                	c.swsp	ra,28(sp)
  1a:	006c                	c.addi4spn	a1,sp,12
  1c:	462d                	c.li	a2,11

0000001e <.LBB463>:
  1e:	973e                	c.add	a4,a5
  20:	00075783          	lhu	a5,0(a4)
  24:	07c2                	c.slli	a5,0x10
  26:	83c1                	c.srli	a5,0x10

00000028 <.LBE463>:
  28:	eff7f793          	andi	a5,a5,-257
  2c:	07c2                	c.slli	a5,0x10
  2e:	83c1                	c.srli	a5,0x10

00000030 <.LBB464>:
  30:	00f71023          	sh	a5,0(a4)

00000034 <.LBE464>:
  34:	000007b7          	lui	a5,0x0
  38:	00251713          	slli	a4,a0,0x2
  3c:	00078793          	addi	a5,a5,0 # 0 <llc_llcp_pause_enc_rsp_pdu_send>
  40:	97ba                	c.add	a5,a4
  42:	4398                	c.lw	a4,0(a5)
  44:	0ff57513          	andi	a0,a0,255

00000048 <.LVL244>:
  48:	0a574783          	lbu	a5,165(a4)
  4c:	9bf5                	c.andi	a5,-3
  4e:	0af702a3          	sb	a5,165(a4)
  52:	00000097          	auipc	ra,0x0
  56:	000080e7          	jalr	ra,0(ra) # 52 <.LVL244+0xa>

0000005a <.LVL245>:
  5a:	40f2                	c.lwsp	ra,28(sp)
  5c:	6105                	c.addi16sp	sp,32
  5e:	8082                	c.jr	ra

Disassembly of section .text.llcp_pause_enc_rsp_handler:

00000000 <llcp_pause_enc_rsp_handler>:
   0:	1101                	c.addi	sp,-32
   2:	ca26                	c.swsp	s1,20(sp)
   4:	84aa                	c.mv	s1,a0
   6:	852e                	c.mv	a0,a1

00000008 <.LVL247>:
   8:	cc22                	c.swsp	s0,24(sp)
   a:	c84a                	c.swsp	s2,16(sp)
   c:	c64e                	c.swsp	s3,12(sp)
   e:	c452                	c.swsp	s4,8(sp)
  10:	c256                	c.swsp	s5,4(sp)
  12:	ce06                	c.swsp	ra,28(sp)
  14:	89ae                	c.mv	s3,a1
  16:	00000097          	auipc	ra,0x0
  1a:	000080e7          	jalr	ra,0(ra) # 16 <.LVL247+0xe>

0000001e <.LVL248>:
  1e:	000007b7          	lui	a5,0x0
  22:	00078a13          	addi	s4,a5,0 # 0 <llcp_pause_enc_rsp_handler>
  26:	00249a93          	slli	s5,s1,0x2
  2a:	9a56                	c.add	s4,s5
  2c:	00157713          	andi	a4,a0,1
  30:	000a2903          	lw	s2,0(s4)

00000034 <.LBB466>:
  34:	00078413          	addi	s0,a5,0

00000038 <.LBE466>:
  38:	c349                	c.beqz	a4,ba <.L149>
  3a:	0a394703          	lbu	a4,163(s2)
  3e:	47ad                	c.li	a5,11
  40:	06f71d63          	bne	a4,a5,ba <.L149>
  44:	85ce                	c.mv	a1,s3
  46:	10200513          	addi	a0,zero,258

0000004a <.LVL250>:
  4a:	00000097          	auipc	ra,0x0
  4e:	000080e7          	jalr	ra,0(ra) # 4a <.LVL250>

00000052 <.LBB468>:
  52:	05c00713          	addi	a4,zero,92
  56:	02e48733          	mul	a4,s1,a4
  5a:	280087b7          	lui	a5,0x28008
  5e:	09278793          	addi	a5,a5,146 # 28008092 <.LASF870+0x280033dc>

00000062 <.LBE468>:
  62:	8526                	c.mv	a0,s1

00000064 <.LBB471>:
  64:	973e                	c.add	a4,a5
  66:	00075783          	lhu	a5,0(a4)
  6a:	07c2                	c.slli	a5,0x10
  6c:	83c1                	c.srli	a5,0x10

0000006e <.LBE471>:
  6e:	cff7f793          	andi	a5,a5,-769
  72:	07c2                	c.slli	a5,0x10
  74:	83c1                	c.srli	a5,0x10

00000076 <.LBB472>:
  76:	00f71023          	sh	a5,0(a4)

0000007a <.LBE472>:
  7a:	47b1                	c.li	a5,12
  7c:	0af901a3          	sb	a5,163(s2)
  80:	00000097          	auipc	ra,0x0
  84:	000080e7          	jalr	ra,0(ra) # 80 <.LBE472+0x6>

00000088 <.LBB474>:
  88:	300026f3          	csrrs	a3,mstatus,zero

0000008c <.LBB476>:
  8c:	300477f3          	csrrci	a5,mstatus,8

00000090 <.LBE476>:
  90:	000a2703          	lw	a4,0(s4)
  94:	0a574783          	lbu	a5,165(a4)
  98:	9bf1                	c.andi	a5,-4
  9a:	0087e793          	ori	a5,a5,8
  9e:	0af702a3          	sb	a5,165(a4)
  a2:	30069073          	csrrw	zero,mstatus,a3

000000a6 <.L150>:
  a6:	40f2                	c.lwsp	ra,28(sp)
  a8:	4462                	c.lwsp	s0,24(sp)
  aa:	44d2                	c.lwsp	s1,20(sp)
  ac:	4942                	c.lwsp	s2,16(sp)

000000ae <.LVL259>:
  ae:	49b2                	c.lwsp	s3,12(sp)
  b0:	4a22                	c.lwsp	s4,8(sp)
  b2:	4a92                	c.lwsp	s5,4(sp)
  b4:	4501                	c.li	a0,0
  b6:	6105                	c.addi16sp	sp,32
  b8:	8082                	c.jr	ra

000000ba <.L149>:
  ba:	0a494703          	lbu	a4,164(s2)
  be:	1769                	c.addi	a4,-6
  c0:	e72d                	c.bnez	a4,12a <.L151>

000000c2 <.LBB480>:
  c2:	8105                	c.srli	a0,0x1

000000c4 <.LBE480>:
  c4:	8905                	c.andi	a0,1
  c6:	c135                	c.beqz	a0,12a <.L151>
  c8:	85ce                	c.mv	a1,s3
  ca:	10200513          	addi	a0,zero,258
  ce:	00000097          	auipc	ra,0x0
  d2:	000080e7          	jalr	ra,0(ra) # ce <.LBE480+0xa>

000000d6 <.LBB481>:
  d6:	05c00513          	addi	a0,zero,92
  da:	02a48533          	mul	a0,s1,a0
  de:	28008737          	lui	a4,0x28008
  e2:	09270713          	addi	a4,a4,146 # 28008092 <.LASF870+0x280033dc>

000000e6 <.LBE481>:
  e6:	6605                	c.lui	a2,0x1
  e8:	fa060613          	addi	a2,a2,-96 # fa0 <.LASF394+0xb>
  ec:	85ce                	c.mv	a1,s3

000000ee <.LBB484>:
  ee:	953a                	c.add	a0,a4
  f0:	00055783          	lhu	a5,0(a0)
  f4:	07c2                	c.slli	a5,0x10
  f6:	83c1                	c.srli	a5,0x10

000000f8 <.LBE484>:
  f8:	cff7f793          	andi	a5,a5,-769
  fc:	07c2                	c.slli	a5,0x10
  fe:	83c1                	c.srli	a5,0x10

00000100 <.LBB485>:
 100:	00f51023          	sh	a5,0(a0)

00000104 <.LBE485>:
 104:	015407b3          	add	a5,s0,s5
 108:	4398                	c.lw	a4,0(a5)
 10a:	10200513          	addi	a0,zero,258
 10e:	0a574783          	lbu	a5,165(a4)
 112:	fdc7f793          	andi	a5,a5,-36
 116:	0af702a3          	sb	a5,165(a4)
 11a:	479d                	c.li	a5,7
 11c:	0af90223          	sb	a5,164(s2)
 120:	00000097          	auipc	ra,0x0
 124:	000080e7          	jalr	ra,0(ra) # 120 <.LBE485+0x1c>

00000128 <.LVL266>:
 128:	bfbd                	c.j	a6 <.L150>

0000012a <.L151>:
 12a:	0a594783          	lbu	a5,165(s2)
 12e:	8ba1                	c.andi	a5,8
 130:	dbbd                	c.beqz	a5,a6 <.L150>
 132:	03d00593          	addi	a1,zero,61
 136:	8526                	c.mv	a0,s1
 138:	00000097          	auipc	ra,0x0
 13c:	000080e7          	jalr	ra,0(ra) # 138 <.L151+0xe>

00000140 <.LVL268>:
 140:	b79d                	c.j	a6 <.L150>

Disassembly of section .text.llc_llcp_enc_req_pdu_send:

00000000 <llc_llcp_enc_req_pdu_send>:
   0:	7139                	c.addi16sp	sp,-64
   2:	da26                	c.swsp	s1,52(sp)
   4:	000004b7          	lui	s1,0x0
   8:	00251793          	slli	a5,a0,0x2
   c:	00048493          	addi	s1,s1,0 # 0 <llc_llcp_enc_req_pdu_send>
  10:	de06                	c.swsp	ra,60(sp)
  12:	dc22                	c.swsp	s0,56(sp)
  14:	d84a                	c.swsp	s2,48(sp)
  16:	d64e                	c.swsp	s3,44(sp)
  18:	d452                	c.swsp	s4,40(sp)
  1a:	d05a                	c.swsp	s6,32(sp)
  1c:	d256                	c.swsp	s5,36(sp)
  1e:	94be                	c.add	s1,a5
  20:	478d                	c.li	a5,3
  22:	00f10423          	sb	a5,8(sp)
  26:	00a5d783          	lhu	a5,10(a1)
  2a:	00000a37          	lui	s4,0x0
  2e:	892a                	c.mv	s2,a0

00000030 <.LBB487>:
  30:	00f108a3          	sb	a5,17(sp)
  34:	83a1                	c.srli	a5,0x8
  36:	00f10923          	sb	a5,18(sp)

0000003a <.LBE487>:
  3a:	000a2783          	lw	a5,0(s4) # 0 <llc_llcp_enc_req_pdu_send>
  3e:	8b2e                	c.mv	s6,a1
  40:	4621                	c.li	a2,8
  42:	0589                	c.addi	a1,2

00000044 <.LVL270>:
  44:	00910513          	addi	a0,sp,9

00000048 <.LVL271>:
  48:	0004aa83          	lw	s5,0(s1)

0000004c <.LBB490>:
  4c:	9782                	c.jalr	a5

0000004e <.LVL273>:
  4e:	000a2783          	lw	a5,0(s4)
  52:	091a8593          	addi	a1,s5,145
  56:	4611                	c.li	a2,4
  58:	01b10513          	addi	a0,sp,27

0000005c <.LBB491>:
  5c:	05c00413          	addi	s0,zero,92

00000060 <.LBE491>:
  60:	9782                	c.jalr	a5

00000062 <.LBB499>:
  62:	02890433          	mul	s0,s2,s0

00000066 <.LBE499>:
  66:	000a2783          	lw	a5,0(s4)
  6a:	095a8593          	addi	a1,s5,149
  6e:	4621                	c.li	a2,8
  70:	01310513          	addi	a0,sp,19
  74:	9782                	c.jalr	a5

00000076 <.LBB500>:
  76:	01c14783          	lbu	a5,28(sp)
  7a:	01b14703          	lbu	a4,27(sp)

0000007e <.LBB505>:
  7e:	280089b7          	lui	s3,0x28008

00000082 <.LBB506>:
  82:	07a2                	c.slli	a5,0x8
  84:	8fd9                	c.or	a5,a4

00000086 <.LBB507>:
  86:	0c498713          	addi	a4,s3,196 # 280080c4 <.LASF870+0x2800340e>
  8a:	9722                	c.add	a4,s0
  8c:	00f71023          	sh	a5,0(a4)

00000090 <.LBB508>:
  90:	01e14783          	lbu	a5,30(sp)
  94:	01d14703          	lbu	a4,29(sp)

00000098 <.LBE508>:
  98:	00cb0593          	addi	a1,s6,12

0000009c <.LBB509>:
  9c:	07a2                	c.slli	a5,0x8
  9e:	8fd9                	c.or	a5,a4

000000a0 <.LBB510>:
  a0:	0c698713          	addi	a4,s3,198
  a4:	9722                	c.add	a4,s0
  a6:	00f71023          	sh	a5,0(a4)

000000aa <.LBE510>:
  aa:	000a2783          	lw	a5,0(s4)
  ae:	4641                	c.li	a2,16
  b0:	081a8513          	addi	a0,s5,129
  b4:	9782                	c.jalr	a5

000000b6 <.LVL280>:
  b6:	000a2783          	lw	a5,0(s4)
  ba:	01310593          	addi	a1,sp,19
  be:	4621                	c.li	a2,8
  c0:	071a8513          	addi	a0,s5,113

000000c4 <.LBB517>:
  c4:	09298993          	addi	s3,s3,146

000000c8 <.LBE517>:
  c8:	9782                	c.jalr	a5

000000ca <.LBB521>:
  ca:	944e                	c.add	s0,s3
  cc:	00045783          	lhu	a5,0(s0)

000000d0 <.LBE521>:
  d0:	00891593          	slli	a1,s2,0x8
  d4:	0015e593          	ori	a1,a1,1

000000d8 <.LBB522>:
  d8:	07c2                	c.slli	a5,0x10
  da:	83c1                	c.srli	a5,0x10

000000dc <.LBE522>:
  dc:	eff7f793          	andi	a5,a5,-257
  e0:	07c2                	c.slli	a5,0x10
  e2:	83c1                	c.srli	a5,0x10

000000e4 <.LBB523>:
  e4:	00f41023          	sh	a5,0(s0)

000000e8 <.LBE523>:
  e8:	4098                	c.lw	a4,0(s1)
  ea:	05c2                	c.slli	a1,0x10
  ec:	6605                	c.lui	a2,0x1
  ee:	0a574783          	lbu	a5,165(a4)
  f2:	81c1                	c.srli	a1,0x10
  f4:	fa060613          	addi	a2,a2,-96 # fa0 <.LASF394+0xb>
  f8:	9bf5                	c.andi	a5,-3
  fa:	0af702a3          	sb	a5,165(a4)
  fe:	10200513          	addi	a0,zero,258
 102:	00000097          	auipc	ra,0x0
 106:	000080e7          	jalr	ra,0(ra) # 102 <.LBE523+0x1a>

0000010a <.LVL285>:
 10a:	00814603          	lbu	a2,8(sp)
 10e:	002c                	c.addi4spn	a1,sp,8
 110:	0ff97513          	andi	a0,s2,255
 114:	00000097          	auipc	ra,0x0
 118:	000080e7          	jalr	ra,0(ra) # 114 <.LVL285+0xa>

0000011c <.LVL286>:
 11c:	50f2                	c.lwsp	ra,60(sp)
 11e:	5462                	c.lwsp	s0,56(sp)
 120:	54d2                	c.lwsp	s1,52(sp)
 122:	5942                	c.lwsp	s2,48(sp)
 124:	59b2                	c.lwsp	s3,44(sp)
 126:	5a22                	c.lwsp	s4,40(sp)
 128:	5a92                	c.lwsp	s5,36(sp)

0000012a <.LVL287>:
 12a:	5b02                	c.lwsp	s6,32(sp)

0000012c <.LVL288>:
 12c:	6121                	c.addi16sp	sp,64

0000012e <.LVL289>:
 12e:	8082                	c.jr	ra

Disassembly of section .text.llc_llcp_enc_rsp_pdu_send:

00000000 <llc_llcp_enc_rsp_pdu_send>:
   0:	000007b7          	lui	a5,0x0
   4:	1101                	c.addi	sp,-32
   6:	00251713          	slli	a4,a0,0x2
   a:	00078793          	addi	a5,a5,0 # 0 <llc_llcp_enc_rsp_pdu_send>
   e:	ce06                	c.swsp	ra,28(sp)
  10:	cc22                	c.swsp	s0,24(sp)
  12:	c84a                	c.swsp	s2,16(sp)
  14:	ca26                	c.swsp	s1,20(sp)
  16:	97ba                	c.add	a5,a4
  18:	4384                	c.lw	s1,0(a5)

0000001a <.LVL291>:
  1a:	00000937          	lui	s2,0x0
  1e:	4791                	c.li	a5,4
  20:	00f10023          	sb	a5,0(sp)
  24:	00092783          	lw	a5,0(s2) # 0 <llc_llcp_enc_rsp_pdu_send>
  28:	842a                	c.mv	s0,a0
  2a:	09148593          	addi	a1,s1,145

0000002e <.LVL292>:
  2e:	4611                	c.li	a2,4
  30:	00910513          	addi	a0,sp,9

00000034 <.LVL293>:
  34:	9782                	c.jalr	a5

00000036 <.LVL294>:
  36:	00092783          	lw	a5,0(s2)
  3a:	09548593          	addi	a1,s1,149
  3e:	4621                	c.li	a2,8
  40:	00110513          	addi	a0,sp,1
  44:	9782                	c.jalr	a5

00000046 <.LBB525>:
  46:	00a14703          	lbu	a4,10(sp)
  4a:	00914783          	lbu	a5,9(sp)

0000004e <.LBB532>:
  4e:	280086b7          	lui	a3,0x28008

00000052 <.LBB538>:
  52:	0722                	c.slli	a4,0x8
  54:	8f5d                	c.or	a4,a5

00000056 <.LBB539>:
  56:	05c00793          	addi	a5,zero,92
  5a:	02f407b3          	mul	a5,s0,a5
  5e:	0c868613          	addi	a2,a3,200 # 280080c8 <.LASF870+0x28003412>
  62:	0ca68693          	addi	a3,a3,202

00000066 <.LBE525>:
  66:	00110593          	addi	a1,sp,1
  6a:	07948513          	addi	a0,s1,121

0000006e <.LBB540>:
  6e:	963e                	c.add	a2,a5
  70:	00e61023          	sh	a4,0(a2)

00000074 <.LBB541>:
  74:	00c14703          	lbu	a4,12(sp)
  78:	00b14603          	lbu	a2,11(sp)

0000007c <.LBB542>:
  7c:	97b6                	c.add	a5,a3

0000007e <.LBB543>:
  7e:	0722                	c.slli	a4,0x8
  80:	8f51                	c.or	a4,a2

00000082 <.LBB544>:
  82:	00e79023          	sh	a4,0(a5)

00000086 <.LBE544>:
  86:	00092783          	lw	a5,0(s2)
  8a:	4621                	c.li	a2,8
  8c:	9782                	c.jalr	a5

0000008e <.LVL300>:
  8e:	00014603          	lbu	a2,0(sp)
  92:	858a                	c.mv	a1,sp
  94:	0ff47513          	andi	a0,s0,255
  98:	00000097          	auipc	ra,0x0
  9c:	000080e7          	jalr	ra,0(ra) # 98 <.LVL300+0xa>

000000a0 <.LVL301>:
  a0:	40f2                	c.lwsp	ra,28(sp)
  a2:	4462                	c.lwsp	s0,24(sp)
  a4:	44d2                	c.lwsp	s1,20(sp)

000000a6 <.LVL302>:
  a6:	4942                	c.lwsp	s2,16(sp)
  a8:	6105                	c.addi16sp	sp,32
  aa:	8082                	c.jr	ra

Disassembly of section .text.llc_llcp_start_enc_rsp_pdu_send:

00000000 <llc_llcp_start_enc_rsp_pdu_send>:
   0:	1101                	c.addi	sp,-32
   2:	4799                	c.li	a5,6
   4:	00f10623          	sb	a5,12(sp)

00000008 <.LBB547>:
   8:	05c00793          	addi	a5,zero,92
   c:	02f507b3          	mul	a5,a0,a5
  10:	28008737          	lui	a4,0x28008
  14:	09270713          	addi	a4,a4,146 # 28008092 <.LASF870+0x280033dc>

00000018 <.LBE547>:
  18:	ce06                	c.swsp	ra,28(sp)
  1a:	cc22                	c.swsp	s0,24(sp)
  1c:	842a                	c.mv	s0,a0

0000001e <.LBB550>:
  1e:	97ba                	c.add	a5,a4
  20:	0007d703          	lhu	a4,0(a5)

00000024 <.LBE550>:
  24:	30076713          	ori	a4,a4,768

00000028 <.LBB551>:
  28:	00e79023          	sh	a4,0(a5)

0000002c <.LBE551>:
  2c:	000007b7          	lui	a5,0x0
  30:	00251713          	slli	a4,a0,0x2
  34:	00078793          	addi	a5,a5,0 # 0 <llc_llcp_start_enc_rsp_pdu_send>
  38:	97ba                	c.add	a5,a4
  3a:	439c                	c.lw	a5,0(a5)
  3c:	0a57c703          	lbu	a4,165(a5)
  40:	0507d603          	lhu	a2,80(a5)
  44:	04e7d583          	lhu	a1,78(a5)
  48:	4b88                	c.lw	a0,16(a5)

0000004a <.LVL307>:
  4a:	00376713          	ori	a4,a4,3
  4e:	0ae782a3          	sb	a4,165(a5)
  52:	00000097          	auipc	ra,0x0
  56:	000080e7          	jalr	ra,0(ra) # 52 <.LVL307+0x8>

0000005a <.LVL308>:
  5a:	00c14603          	lbu	a2,12(sp)
  5e:	006c                	c.addi4spn	a1,sp,12
  60:	0ff47513          	andi	a0,s0,255
  64:	00000097          	auipc	ra,0x0
  68:	000080e7          	jalr	ra,0(ra) # 64 <.LVL308+0xa>

0000006c <.LVL309>:
  6c:	40f2                	c.lwsp	ra,28(sp)
  6e:	4462                	c.lwsp	s0,24(sp)
  70:	6105                	c.addi16sp	sp,32
  72:	8082                	c.jr	ra

Disassembly of section .text.llcp_start_enc_rsp_handler:

00000000 <llcp_start_enc_rsp_handler>:
   0:	1101                	c.addi	sp,-32
   2:	c84a                	c.swsp	s2,16(sp)
   4:	892a                	c.mv	s2,a0
   6:	852e                	c.mv	a0,a1

00000008 <.LVL311>:
   8:	cc22                	c.swsp	s0,24(sp)
   a:	ca26                	c.swsp	s1,20(sp)
   c:	c64e                	c.swsp	s3,12(sp)
   e:	c452                	c.swsp	s4,8(sp)
  10:	c256                	c.swsp	s5,4(sp)
  12:	00000437          	lui	s0,0x0
  16:	ce06                	c.swsp	ra,28(sp)
  18:	8aae                	c.mv	s5,a1
  1a:	00000097          	auipc	ra,0x0
  1e:	000080e7          	jalr	ra,0(ra) # 1a <.LVL311+0x12>

00000022 <.LVL312>:
  22:	00040793          	addi	a5,s0,0 # 0 <llcp_start_enc_rsp_handler>
  26:	00291a13          	slli	s4,s2,0x2
  2a:	97d2                	c.add	a5,s4
  2c:	0007a983          	lw	s3,0(a5)
  30:	84aa                	c.mv	s1,a0

00000032 <.LVL313>:
  32:	00040413          	addi	s0,s0,0
  36:	0a59c783          	lbu	a5,165(s3)
  3a:	8ba1                	c.andi	a5,8
  3c:	cf85                	c.beqz	a5,74 <.L172>
  3e:	0a39c703          	lbu	a4,163(s3)
  42:	47c9                	c.li	a5,18
  44:	02f70863          	beq	a4,a5,74 <.L172>
  48:	0a49c703          	lbu	a4,164(s3)
  4c:	47ad                	c.li	a5,11
  4e:	02f70363          	beq	a4,a5,74 <.L172>
  52:	03d00593          	addi	a1,zero,61
  56:	854a                	c.mv	a0,s2
  58:	00000097          	auipc	ra,0x0
  5c:	000080e7          	jalr	ra,0(ra) # 58 <.LVL313+0x26>

00000060 <.L173>:
  60:	40f2                	c.lwsp	ra,28(sp)
  62:	4462                	c.lwsp	s0,24(sp)
  64:	44d2                	c.lwsp	s1,20(sp)
  66:	4942                	c.lwsp	s2,16(sp)
  68:	49b2                	c.lwsp	s3,12(sp)

0000006a <.LVL315>:
  6a:	4a22                	c.lwsp	s4,8(sp)
  6c:	4a92                	c.lwsp	s5,4(sp)
  6e:	4501                	c.li	a0,0
  70:	6105                	c.addi16sp	sp,32
  72:	8082                	c.jr	ra

00000074 <.L172>:
  74:	00f4f793          	andi	a5,s1,15
  78:	473d                	c.li	a4,15
  7a:	04e79763          	bne	a5,a4,c8 <.L174>
  7e:	854a                	c.mv	a0,s2
  80:	00000097          	auipc	ra,0x0
  84:	000080e7          	jalr	ra,0(ra) # 80 <.L172+0xc>

00000088 <.LVL317>:
  88:	4791                	c.li	a5,4
  8a:	fcf51be3          	bne	a0,a5,60 <.L173>
  8e:	0a49c703          	lbu	a4,164(s3)
  92:	47ad                	c.li	a5,11
  94:	fcf716e3          	bne	a4,a5,60 <.L173>

00000098 <.LBB555>:
  98:	05c00793          	addi	a5,zero,92
  9c:	02f90933          	mul	s2,s2,a5
  a0:	280087b7          	lui	a5,0x28008
  a4:	09278793          	addi	a5,a5,146 # 28008092 <.LASF870+0x280033dc>

000000a8 <.LBE555>:
  a8:	9452                	c.add	s0,s4

000000aa <.LBB558>:
  aa:	993e                	c.add	s2,a5
  ac:	00095783          	lhu	a5,0(s2)

000000b0 <.LBE558>:
  b0:	3007e793          	ori	a5,a5,768

000000b4 <.LBB559>:
  b4:	00f91023          	sh	a5,0(s2)

000000b8 <.LBE559>:
  b8:	4018                	c.lw	a4,0(s0)
  ba:	0a574783          	lbu	a5,165(a4)
  be:	0037e793          	ori	a5,a5,3
  c2:	0af702a3          	sb	a5,165(a4)
  c6:	bf69                	c.j	60 <.L173>

000000c8 <.L174>:
  c8:	85d6                	c.mv	a1,s5
  ca:	10200513          	addi	a0,zero,258
  ce:	00000097          	auipc	ra,0x0
  d2:	000080e7          	jalr	ra,0(ra) # ce <.L174+0x6>

000000d6 <.LVL321>:
  d6:	854a                	c.mv	a0,s2
  d8:	00000097          	auipc	ra,0x0
  dc:	000080e7          	jalr	ra,0(ra) # d8 <.LVL321+0x2>

000000e0 <.LVL322>:
  e0:	4791                	c.li	a5,4
  e2:	06f51563          	bne	a0,a5,14c <.L175>
  e6:	47b1                	c.li	a5,12
  e8:	0af98223          	sb	a5,164(s3)

000000ec <.LBB561>:
  ec:	8885                	c.andi	s1,1

000000ee <.LVL324>:
  ee:	c899                	c.beqz	s1,104 <.L176>
  f0:	6605                	c.lui	a2,0x1
  f2:	fa060613          	addi	a2,a2,-96 # fa0 <.LASF394+0xb>
  f6:	85d6                	c.mv	a1,s5
  f8:	10200513          	addi	a0,zero,258
  fc:	00000097          	auipc	ra,0x0
 100:	000080e7          	jalr	ra,0(ra) # fc <.LVL324+0xe>

00000104 <.L176>:
 104:	854a                	c.mv	a0,s2
 106:	00000097          	auipc	ra,0x0
 10a:	000080e7          	jalr	ra,0(ra) # 106 <.L176+0x2>

0000010e <.LBB563>:
 10e:	300026f3          	csrrs	a3,mstatus,zero

00000112 <.LBB565>:
 112:	300477f3          	csrrci	a5,mstatus,8

00000116 <.LBE565>:
 116:	014407b3          	add	a5,s0,s4
 11a:	4398                	c.lw	a4,0(a5)
 11c:	0a574783          	lbu	a5,165(a4)
 120:	9bdd                	c.andi	a5,-9
 122:	0af702a3          	sb	a5,165(a4)
 126:	30069073          	csrrw	zero,mstatus,a3

0000012a <.L177>:
 12a:	9452                	c.add	s0,s4
 12c:	4018                	c.lw	a4,0(s0)
 12e:	0a574783          	lbu	a5,165(a4)
 132:	0107f693          	andi	a3,a5,16
 136:	cea9                	c.beqz	a3,190 <.L178>
 138:	9bbd                	c.andi	a5,-17
 13a:	0af702a3          	sb	a5,165(a4)
 13e:	4581                	c.li	a1,0
 140:	854a                	c.mv	a0,s2
 142:	00000097          	auipc	ra,0x0
 146:	000080e7          	jalr	ra,0(ra) # 142 <.L177+0x18>

0000014a <.LVL330>:
 14a:	bf19                	c.j	60 <.L173>

0000014c <.L175>:
 14c:	04e2                	c.slli	s1,0x18

0000014e <.LVL332>:
 14e:	84e1                	c.srai	s1,0x18

00000150 <.LVL333>:
 150:	0fe4f593          	andi	a1,s1,254
 154:	8556                	c.mv	a0,s5
 156:	00000097          	auipc	ra,0x0
 15a:	000080e7          	jalr	ra,0(ra) # 156 <.LVL333+0x6>

0000015e <.LBE566>:
 15e:	0a0981a3          	sb	zero,163(s3)

00000162 <.LBB568>:
 162:	300026f3          	csrrs	a3,mstatus,zero

00000166 <.LBB570>:
 166:	300477f3          	csrrci	a5,mstatus,8

0000016a <.LBE570>:
 16a:	014407b3          	add	a5,s0,s4
 16e:	4398                	c.lw	a4,0(a5)
 170:	0a574783          	lbu	a5,165(a4)
 174:	fd37f793          	andi	a5,a5,-45
 178:	0af702a3          	sb	a5,165(a4)
 17c:	30069073          	csrrw	zero,mstatus,a3

00000180 <.LBB571>:
 180:	0fa4f593          	andi	a1,s1,250
 184:	8556                	c.mv	a0,s5
 186:	00000097          	auipc	ra,0x0
 18a:	000080e7          	jalr	ra,0(ra) # 186 <.LBB571+0x6>

0000018e <.LVL338>:
 18e:	bf71                	c.j	12a <.L177>

00000190 <.L178>:
 190:	4601                	c.li	a2,0
 192:	4585                	c.li	a1,1
 194:	854a                	c.mv	a0,s2
 196:	00000097          	auipc	ra,0x0
 19a:	000080e7          	jalr	ra,0(ra) # 196 <.L178+0x6>

0000019e <.LVL340>:
 19e:	b5c9                	c.j	60 <.L173>

Disassembly of section .text.llc_llcp_reject_ind_pdu_send:

00000000 <llc_llcp_reject_ind_pdu_send>:
   0:	000007b7          	lui	a5,0x0
   4:	00251713          	slli	a4,a0,0x2
   8:	1101                	c.addi	sp,-32
   a:	00078793          	addi	a5,a5,0 # 0 <llc_llcp_reject_ind_pdu_send>
   e:	ce06                	c.swsp	ra,28(sp)
  10:	97ba                	c.add	a5,a4
  12:	439c                	c.lw	a5,0(a5)

00000014 <.LVL342>:
  14:	0ff57513          	andi	a0,a0,255

00000018 <.LVL343>:
  18:	05c7d703          	lhu	a4,92(a5)
  1c:	8b05                	c.andi	a4,1
  1e:	c709                	c.beqz	a4,28 <.L187>
  20:	0697c703          	lbu	a4,105(a5)
  24:	8b11                	c.andi	a4,4
  26:	e701                	c.bnez	a4,2e <.L188>

00000028 <.L187>:
  28:	4735                	c.li	a4,13
  2a:	02b77263          	bgeu	a4,a1,4e <.L189>

0000002e <.L188>:
  2e:	47c5                	c.li	a5,17

00000030 <.LVL345>:
  30:	00c10723          	sb	a2,14(sp)
  34:	00f10623          	sb	a5,12(sp)
  38:	00b106a3          	sb	a1,13(sp)
  3c:	4645                	c.li	a2,17

0000003e <.L196>:
  3e:	006c                	c.addi4spn	a1,sp,12
  40:	00000097          	auipc	ra,0x0
  44:	000080e7          	jalr	ra,0(ra) # 40 <.L196+0x2>

00000048 <.LBE581>:
  48:	40f2                	c.lwsp	ra,28(sp)
  4a:	6105                	c.addi16sp	sp,32
  4c:	8082                	c.jr	ra

0000004e <.L189>:
  4e:	15f5                	c.addi	a1,-3

00000050 <.LVL349>:
  50:	00e10623          	sb	a4,12(sp)
  54:	00c106a3          	sb	a2,13(sp)
  58:	0fd5f593          	andi	a1,a1,253
  5c:	e199                	c.bnez	a1,62 <.L191>
  5e:	0a0782a3          	sb	zero,165(a5)

00000062 <.L191>:
  62:	4635                	c.li	a2,13

00000064 <.LVL350>:
  64:	bfe9                	c.j	3e <.L196>

Disassembly of section .text.llcp_length_rsp_handler:

00000000 <llcp_length_rsp_handler>:
   0:	1101                	c.addi	sp,-32
   2:	c452                	c.swsp	s4,8(sp)
   4:	8a2a                	c.mv	s4,a0
   6:	852e                	c.mv	a0,a1

00000008 <.LVL352>:
   8:	cc22                	c.swsp	s0,24(sp)
   a:	ca26                	c.swsp	s1,20(sp)
   c:	c84a                	c.swsp	s2,16(sp)
   e:	ce06                	c.swsp	ra,28(sp)
  10:	c64e                	c.swsp	s3,12(sp)
  12:	c256                	c.swsp	s5,4(sp)
  14:	c05a                	c.swsp	s6,0(sp)
  16:	892e                	c.mv	s2,a1
  18:	84b6                	c.mv	s1,a3
  1a:	00000097          	auipc	ra,0x0
  1e:	000080e7          	jalr	ra,0(ra) # 1a <.LVL352+0x12>

00000022 <.LVL353>:
  22:	000007b7          	lui	a5,0x0
  26:	002a1713          	slli	a4,s4,0x2
  2a:	00078793          	addi	a5,a5,0 # 0 <llcp_length_rsp_handler>
  2e:	97ba                	c.add	a5,a4
  30:	4380                	c.lw	s0,0(a5)

00000032 <.LVL354>:
  32:	0a544783          	lbu	a5,165(s0)
  36:	8ba1                	c.andi	a5,8
  38:	c39d                	c.beqz	a5,5e <.L198>
  3a:	03d00593          	addi	a1,zero,61
  3e:	8552                	c.mv	a0,s4

00000040 <.LVL355>:
  40:	00000097          	auipc	ra,0x0
  44:	000080e7          	jalr	ra,0(ra) # 40 <.LVL355>

00000048 <.L199>:
  48:	40f2                	c.lwsp	ra,28(sp)
  4a:	4462                	c.lwsp	s0,24(sp)

0000004c <.LVL357>:
  4c:	44d2                	c.lwsp	s1,20(sp)
  4e:	4942                	c.lwsp	s2,16(sp)
  50:	49b2                	c.lwsp	s3,12(sp)
  52:	4a22                	c.lwsp	s4,8(sp)
  54:	4a92                	c.lwsp	s5,4(sp)
  56:	4b02                	c.lwsp	s6,0(sp)
  58:	4501                	c.li	a0,0
  5a:	6105                	c.addi16sp	sp,32
  5c:	8082                	c.jr	ra

0000005e <.L198>:
  5e:	89aa                	c.mv	s3,a0
  60:	85ca                	c.mv	a1,s2
  62:	10200513          	addi	a0,zero,258

00000066 <.LVL359>:
  66:	00000097          	auipc	ra,0x0
  6a:	000080e7          	jalr	ra,0(ra) # 66 <.LVL359>

0000006e <.LBB583>:
  6e:	0019f793          	andi	a5,s3,1
  72:	16078563          	beq	a5,zero,1dc <.L200>
  76:	0a344703          	lbu	a4,163(s0)
  7a:	4791                	c.li	a5,4
  7c:	16f71063          	bne	a4,a5,1dc <.L200>

00000080 <.LBB585>:
  80:	0a0401a3          	sb	zero,163(s0)

00000084 <.LBB586>:
  84:	0fe9f593          	andi	a1,s3,254
  88:	854a                	c.mv	a0,s2
  8a:	00000097          	auipc	ra,0x0
  8e:	000080e7          	jalr	ra,0(ra) # 8a <.LBB586+0x6>

00000092 <.LBE586>:
  92:	0024d683          	lhu	a3,2(s1)
  96:	47e9                	c.li	a5,26
  98:	02d7f063          	bgeu	a5,a3,b8 <.L201>
  9c:	0064d583          	lhu	a1,6(s1)
  a0:	00b7fc63          	bgeu	a5,a1,b8 <.L201>
  a4:	0044d703          	lhu	a4,4(s1)
  a8:	14700793          	addi	a5,zero,327
  ac:	00e7f663          	bgeu	a5,a4,b8 <.L201>
  b0:	0084d603          	lhu	a2,8(s1)
  b4:	00c7ec63          	bltu	a5,a2,cc <.L202>

000000b8 <.L201>:
  b8:	02000613          	addi	a2,zero,32

000000bc <.L216>:
  bc:	0004c583          	lbu	a1,0(s1)
  c0:	8552                	c.mv	a0,s4
  c2:	00000097          	auipc	ra,0x0
  c6:	000080e7          	jalr	ra,0(ra) # c2 <.L216+0x6>

000000ca <.LVL364>:
  ca:	bfbd                	c.j	48 <.L199>

000000cc <.L202>:
  cc:	04445783          	lhu	a5,68(s0)

000000d0 <.LBB591>:
  d0:	00f5f363          	bgeu	a1,a5,d6 <.L203>
  d4:	87ae                	c.mv	a5,a1

000000d6 <.L203>:
  d6:	04c45983          	lhu	s3,76(s0)

000000da <.LVL366>:
  da:	01079a93          	slli	s5,a5,0x10
  de:	010ada93          	srli	s5,s5,0x10

000000e2 <.LBB592>:
  e2:	01367363          	bgeu	a2,s3,e8 <.L204>
  e6:	89b2                	c.mv	s3,a2

000000e8 <.L204>:
  e8:	04245903          	lhu	s2,66(s0)
  ec:	09c2                	c.slli	s3,0x10
  ee:	0109d993          	srli	s3,s3,0x10

000000f2 <.LBB594>:
  f2:	0126f363          	bgeu	a3,s2,f8 <.L205>
  f6:	8936                	c.mv	s2,a3

000000f8 <.L205>:
  f8:	04a45483          	lhu	s1,74(s0)

000000fc <.LVL369>:
  fc:	0942                	c.slli	s2,0x10
  fe:	01095913          	srli	s2,s2,0x10

00000102 <.LBB596>:
 102:	00977363          	bgeu	a4,s1,108 <.L206>
 106:	84ba                	c.mv	s1,a4

00000108 <.L206>:
 108:	04c2                	c.slli	s1,0x10
 10a:	4808                	c.lw	a0,16(s0)
 10c:	80c1                	c.srli	s1,0x10

0000010e <.LVL371>:
 10e:	864e                	c.mv	a2,s3
 110:	85a6                	c.mv	a1,s1
 112:	00000097          	auipc	ra,0x0
 116:	000080e7          	jalr	ra,0(ra) # 112 <.LVL371+0x4>

0000011a <.LVL372>:
 11a:	04845783          	lhu	a5,72(s0)
 11e:	01579e63          	bne	a5,s5,13a <.L207>
 122:	05045783          	lhu	a5,80(s0)
 126:	01379a63          	bne	a5,s3,13a <.L207>
 12a:	04645783          	lhu	a5,70(s0)
 12e:	01279663          	bne	a5,s2,13a <.L207>
 132:	04e45783          	lhu	a5,78(s0)
 136:	02978c63          	beq	a5,s1,16e <.L208>

0000013a <.L207>:
 13a:	30002b73          	csrrs	s6,mstatus,zero

0000013e <.LBB600>:
 13e:	300477f3          	csrrci	a5,mstatus,8

00000142 <.LBE600>:
 142:	4808                	c.lw	a0,16(s0)
 144:	05541423          	sh	s5,72(s0)
 148:	05341823          	sh	s3,80(s0)
 14c:	05241323          	sh	s2,70(s0)
 150:	04941723          	sh	s1,78(s0)
 154:	864a                	c.mv	a2,s2
 156:	85a6                	c.mv	a1,s1
 158:	00000097          	auipc	ra,0x0
 15c:	000080e7          	jalr	ra,0(ra) # 158 <.LBE600+0x16>

00000160 <.LVL375>:
 160:	300b1073          	csrrw	zero,mstatus,s6

00000164 <.LBE598>:
 164:	05344783          	lbu	a5,83(s0)
 168:	9bf5                	c.andi	a5,-3
 16a:	04f409a3          	sb	a5,83(s0)

0000016e <.L208>:
 16e:	4519                	c.li	a0,6
 170:	00000097          	auipc	ra,0x0
 174:	000080e7          	jalr	ra,0(ra) # 170 <.L208+0x2>

00000178 <.LVL377>:
 178:	ec0508e3          	beq	a0,zero,48 <.L199>
 17c:	05344783          	lbu	a5,83(s0)
 180:	8b89                	c.andi	a5,2
 182:	ec0793e3          	bne	a5,zero,48 <.L199>

00000186 <.LBB601>:
 186:	6505                	c.lui	a0,0x1
 188:	46b1                	c.li	a3,12
 18a:	03e00613          	addi	a2,zero,62
 18e:	85d2                	c.mv	a1,s4
 190:	80450513          	addi	a0,a0,-2044 # 804 <.LASF837>
 194:	00000097          	auipc	ra,0x0
 198:	000080e7          	jalr	ra,0(ra) # 194 <.LBB601+0xe>

0000019c <.LVL378>:
 19c:	471d                	c.li	a4,7
 19e:	00e50023          	sb	a4,0(a0)

000001a2 <.LBB602>:
 1a2:	01451123          	sh	s4,2(a0)
 1a6:	04845703          	lhu	a4,72(s0)
 1aa:	00e51423          	sh	a4,8(a0)
 1ae:	05045703          	lhu	a4,80(s0)
 1b2:	00e51523          	sh	a4,10(a0)
 1b6:	04645703          	lhu	a4,70(s0)
 1ba:	00e51223          	sh	a4,4(a0)
 1be:	04e45703          	lhu	a4,78(s0)
 1c2:	00e51323          	sh	a4,6(a0)
 1c6:	00000097          	auipc	ra,0x0
 1ca:	000080e7          	jalr	ra,0(ra) # 1c6 <.LBB602+0x24>

000001ce <.LVL380>:
 1ce:	05344783          	lbu	a5,83(s0)
 1d2:	0027e793          	ori	a5,a5,2
 1d6:	04f409a3          	sb	a5,83(s0)
 1da:	b5bd                	c.j	48 <.L199>

000001dc <.L200>:
 1dc:	4645                	c.li	a2,17
 1de:	bdf9                	c.j	bc <.L216>

Disassembly of section .text.llcp_con_param_rsp_handler:

00000000 <llcp_con_param_rsp_handler>:
   0:	1101                	c.addi	sp,-32
   2:	cc22                	c.swsp	s0,24(sp)
   4:	842a                	c.mv	s0,a0
   6:	852e                	c.mv	a0,a1

00000008 <.LVL383>:
   8:	ca26                	c.swsp	s1,20(sp)
   a:	c84a                	c.swsp	s2,16(sp)
   c:	c64e                	c.swsp	s3,12(sp)
   e:	ce06                	c.swsp	ra,28(sp)
  10:	c452                	c.swsp	s4,8(sp)
  12:	89ae                	c.mv	s3,a1
  14:	8936                	c.mv	s2,a3
  16:	000004b7          	lui	s1,0x0
  1a:	00000097          	auipc	ra,0x0
  1e:	000080e7          	jalr	ra,0(ra) # 1a <.LVL383+0x12>

00000022 <.LVL384>:
  22:	00241793          	slli	a5,s0,0x2
  26:	00048493          	addi	s1,s1,0 # 0 <llcp_con_param_rsp_handler>
  2a:	94be                	c.add	s1,a5
  2c:	4098                	c.lw	a4,0(s1)

0000002e <.LVL385>:
  2e:	0a574783          	lbu	a5,165(a4)
  32:	8ba1                	c.andi	a5,8
  34:	c38d                	c.beqz	a5,56 <.L218>
  36:	03d00593          	addi	a1,zero,61
  3a:	8522                	c.mv	a0,s0

0000003c <.LVL386>:
  3c:	00000097          	auipc	ra,0x0
  40:	000080e7          	jalr	ra,0(ra) # 3c <.LVL386>

00000044 <.L219>:
  44:	40f2                	c.lwsp	ra,28(sp)
  46:	4462                	c.lwsp	s0,24(sp)
  48:	44d2                	c.lwsp	s1,20(sp)
  4a:	4942                	c.lwsp	s2,16(sp)
  4c:	49b2                	c.lwsp	s3,12(sp)
  4e:	4a22                	c.lwsp	s4,8(sp)
  50:	4501                	c.li	a0,0
  52:	6105                	c.addi16sp	sp,32
  54:	8082                	c.jr	ra

00000056 <.L218>:
  56:	0a374703          	lbu	a4,163(a4)

0000005a <.LVL389>:
  5a:	479d                	c.li	a5,7
  5c:	00f70b63          	beq	a4,a5,72 <.L220>
  60:	00094583          	lbu	a1,0(s2)
  64:	467d                	c.li	a2,31
  66:	8522                	c.mv	a0,s0

00000068 <.LVL390>:
  68:	00000097          	auipc	ra,0x0
  6c:	000080e7          	jalr	ra,0(ra) # 68 <.LVL390>

00000070 <.LVL391>:
  70:	bfd1                	c.j	44 <.L219>

00000072 <.L220>:
  72:	85ce                	c.mv	a1,s3
  74:	8a2a                	c.mv	s4,a0
  76:	10200513          	addi	a0,zero,258

0000007a <.LVL393>:
  7a:	00000097          	auipc	ra,0x0
  7e:	000080e7          	jalr	ra,0(ra) # 7a <.LVL393>

00000082 <.LVL394>:
  82:	8522                	c.mv	a0,s0
  84:	00000097          	auipc	ra,0x0
  88:	000080e7          	jalr	ra,0(ra) # 84 <.LVL394+0x2>

0000008c <.LVL395>:
  8c:	478d                	c.li	a5,3
  8e:	faf51be3          	bne	a0,a5,44 <.L219>

00000092 <.LBB605>:
  92:	4084                	c.lw	s1,0(s1)

00000094 <.LBB606>:
  94:	00295703          	lhu	a4,2(s2)

00000098 <.LBB609>:
  98:	4088                	c.lw	a0,0(s1)

0000009a <.LBE609>:
  9a:	00455783          	lhu	a5,4(a0)
  9e:	06e7ea63          	bltu	a5,a4,112 <.L221>
  a2:	00495703          	lhu	a4,4(s2)
  a6:	00255783          	lhu	a5,2(a0)
  aa:	06f76463          	bltu	a4,a5,112 <.L221>
  ae:	4791                	c.li	a5,4
  b0:	00f50023          	sb	a5,0(a0)
  b4:	00295783          	lhu	a5,2(s2)
  b8:	00655703          	lhu	a4,6(a0)
  bc:	00f51123          	sh	a5,2(a0)
  c0:	00495783          	lhu	a5,4(s2)
  c4:	00f51223          	sh	a5,4(a0)

000000c8 <.LBB610>:
  c8:	00695783          	lhu	a5,6(s2)
  cc:	00e7f363          	bgeu	a5,a4,d2 <.L222>
  d0:	87ba                	c.mv	a5,a4

000000d2 <.L222>:
  d2:	00f51323          	sh	a5,6(a0)

000000d6 <.LBB612>:
  d6:	00855703          	lhu	a4,8(a0)

000000da <.LBB615>:
  da:	00895783          	lhu	a5,8(s2)
  de:	00e7f363          	bgeu	a5,a4,e4 <.L223>
  e2:	87ba                	c.mv	a5,a4

000000e4 <.L223>:
  e4:	00f51423          	sh	a5,8(a0)
  e8:	489c                	c.lw	a5,16(s1)
  ea:	27100693          	addi	a3,zero,625
  ee:	0127d703          	lhu	a4,18(a5)
  f2:	02d75733          	divu	a4,a4,a3
  f6:	00e51523          	sh	a4,10(a0)
  fa:	489c                	c.lw	a5,16(s1)
  fc:	0127d783          	lhu	a5,18(a5)
 100:	02d7d7b3          	divu	a5,a5,a3
 104:	00f51623          	sh	a5,12(a0)
 108:	00000097          	auipc	ra,0x0
 10c:	000080e7          	jalr	ra,0(ra) # 108 <.L223+0x24>

00000110 <.LVL400>:
 110:	bf15                	c.j	44 <.L219>

00000112 <.L221>:
 112:	02000613          	addi	a2,zero,32
 116:	45c1                	c.li	a1,16
 118:	8522                	c.mv	a0,s0

0000011a <.LVL402>:
 11a:	0104a903          	lw	s2,16(s1)

0000011e <.LVL403>:
 11e:	00000097          	auipc	ra,0x0
 122:	000080e7          	jalr	ra,0(ra) # 11e <.LVL403>

00000126 <.LVL404>:
 126:	05c4d783          	lhu	a5,92(s1)
 12a:	0407f713          	andi	a4,a5,64
 12e:	c705                	c.beqz	a4,156 <.L225>
 130:	fbf7f793          	andi	a5,a5,-65
 134:	04f49e23          	sh	a5,92(s1)
 138:	4509                	c.li	a0,2
 13a:	00000097          	auipc	ra,0x0
 13e:	000080e7          	jalr	ra,0(ra) # 13a <.LVL404+0x14>

00000142 <.LVL405>:
 142:	c911                	c.beqz	a0,156 <.L225>
 144:	02890613          	addi	a2,s2,40

00000148 <.LVL406>:
 148:	85a2                	c.mv	a1,s0
 14a:	02000513          	addi	a0,zero,32
 14e:	00000097          	auipc	ra,0x0
 152:	000080e7          	jalr	ra,0(ra) # 14e <.LVL406+0x6>

00000156 <.L225>:
 156:	0fea7593          	andi	a1,s4,254
 15a:	854e                	c.mv	a0,s3
 15c:	00000097          	auipc	ra,0x0
 160:	000080e7          	jalr	ra,0(ra) # 15c <.L225+0x6>

00000164 <.LBE617>:
 164:	4581                	c.li	a1,0
 166:	0a0481a3          	sb	zero,163(s1)
 16a:	8522                	c.mv	a0,s0
 16c:	00000097          	auipc	ra,0x0
 170:	000080e7          	jalr	ra,0(ra) # 16c <.LBE617+0x8>

00000174 <.LVL409>:
 174:	bdc1                	c.j	44 <.L219>

Disassembly of section .text.llcp_feats_rsp_handler:

00000000 <llcp_feats_rsp_handler>:
   0:	1101                	c.addi	sp,-32
   2:	ca26                	c.swsp	s1,20(sp)
   4:	84aa                	c.mv	s1,a0
   6:	852e                	c.mv	a0,a1

00000008 <.LVL411>:
   8:	cc22                	c.swsp	s0,24(sp)
   a:	c84a                	c.swsp	s2,16(sp)
   c:	c452                	c.swsp	s4,8(sp)
   e:	ce06                	c.swsp	ra,28(sp)
  10:	c64e                	c.swsp	s3,12(sp)
  12:	892e                	c.mv	s2,a1
  14:	8a36                	c.mv	s4,a3
  16:	00000097          	auipc	ra,0x0
  1a:	000080e7          	jalr	ra,0(ra) # 16 <.LVL411+0xe>

0000001e <.LVL412>:
  1e:	000007b7          	lui	a5,0x0
  22:	00249713          	slli	a4,s1,0x2
  26:	00078793          	addi	a5,a5,0 # 0 <llcp_feats_rsp_handler>
  2a:	97ba                	c.add	a5,a4
  2c:	4380                	c.lw	s0,0(a5)

0000002e <.LVL413>:
  2e:	0a544783          	lbu	a5,165(s0)
  32:	8ba1                	c.andi	a5,8
  34:	c38d                	c.beqz	a5,56 <.L232>
  36:	03d00593          	addi	a1,zero,61
  3a:	8526                	c.mv	a0,s1

0000003c <.LVL414>:
  3c:	00000097          	auipc	ra,0x0
  40:	000080e7          	jalr	ra,0(ra) # 3c <.LVL414>

00000044 <.L233>:
  44:	40f2                	c.lwsp	ra,28(sp)
  46:	4462                	c.lwsp	s0,24(sp)

00000048 <.LVL416>:
  48:	44d2                	c.lwsp	s1,20(sp)
  4a:	4942                	c.lwsp	s2,16(sp)
  4c:	49b2                	c.lwsp	s3,12(sp)
  4e:	4a22                	c.lwsp	s4,8(sp)

00000050 <.LVL417>:
  50:	4501                	c.li	a0,0
  52:	6105                	c.addi16sp	sp,32
  54:	8082                	c.jr	ra

00000056 <.L232>:
  56:	00157793          	andi	a5,a0,1
  5a:	89aa                	c.mv	s3,a0

0000005c <.LBB619>:
  5c:	cbb5                	c.beqz	a5,d0 <.L234>
  5e:	0a344703          	lbu	a4,163(s0)
  62:	4785                	c.li	a5,1
  64:	06f71663          	bne	a4,a5,d0 <.L234>

00000068 <.LBB621>:
  68:	00849593          	slli	a1,s1,0x8
  6c:	0015e593          	ori	a1,a1,1
  70:	05c2                	c.slli	a1,0x10
  72:	81c1                	c.srli	a1,0x10
  74:	10200513          	addi	a0,zero,258

00000078 <.LVL421>:
  78:	00000097          	auipc	ra,0x0
  7c:	000080e7          	jalr	ra,0(ra) # 78 <.LVL421>

00000080 <.LBB622>:
  80:	001a0693          	addi	a3,s4,1
  84:	06940793          	addi	a5,s0,105
  88:	07140593          	addi	a1,s0,113
  8c:	8636                	c.mv	a2,a3

0000008e <.L235>:
  8e:	0007c703          	lbu	a4,0(a5)
  92:	0006c503          	lbu	a0,0(a3)
  96:	0785                	c.addi	a5,1

00000098 <.LVL424>:
  98:	0685                	c.addi	a3,1
  9a:	8f69                	c.and	a4,a0
  9c:	fee78fa3          	sb	a4,-1(a5)
  a0:	feb797e3          	bne	a5,a1,8e <.L235>

000000a4 <.LBE622>:
  a4:	05c45783          	lhu	a5,92(s0)
  a8:	85a6                	c.mv	a1,s1
  aa:	4501                	c.li	a0,0
  ac:	0017e793          	ori	a5,a5,1
  b0:	04f41e23          	sh	a5,92(s0)
  b4:	00000097          	auipc	ra,0x0
  b8:	000080e7          	jalr	ra,0(ra) # b4 <.LBE622+0x10>

000000bc <.LBB623>:
  bc:	0fe9f593          	andi	a1,s3,254

000000c0 <.LBE623>:
  c0:	0a0401a3          	sb	zero,163(s0)

000000c4 <.LBB626>:
  c4:	854a                	c.mv	a0,s2
  c6:	00000097          	auipc	ra,0x0
  ca:	000080e7          	jalr	ra,0(ra) # c6 <.LBB626+0x2>

000000ce <.LVL427>:
  ce:	bf9d                	c.j	44 <.L233>

000000d0 <.L234>:
  d0:	000a4583          	lbu	a1,0(s4)
  d4:	4645                	c.li	a2,17
  d6:	8526                	c.mv	a0,s1

000000d8 <.LVL429>:
  d8:	00000097          	auipc	ra,0x0
  dc:	000080e7          	jalr	ra,0(ra) # d8 <.LVL429>

000000e0 <.LVL430>:
  e0:	b795                	c.j	44 <.L233>

Disassembly of section .text.llcp_channel_map_ind_handler:

00000000 <llcp_channel_map_ind_handler>:
   0:	7179                	c.addi16sp	sp,-48
   2:	c85a                	c.swsp	s6,16(sp)
   4:	8b2a                	c.mv	s6,a0
   6:	852e                	c.mv	a0,a1

00000008 <.LVL432>:
   8:	d422                	c.swsp	s0,40(sp)
   a:	d226                	c.swsp	s1,36(sp)
   c:	d04a                	c.swsp	s2,32(sp)
   e:	ce4e                	c.swsp	s3,28(sp)
  10:	cc52                	c.swsp	s4,24(sp)
  12:	ca56                	c.swsp	s5,20(sp)
  14:	c65e                	c.swsp	s7,12(sp)
  16:	00c039b3          	sltu	s3,zero,a2
  1a:	8bb6                	c.mv	s7,a3
  1c:	ffe68a93          	addi	s5,a3,-2
  20:	d606                	c.swsp	ra,44(sp)
  22:	c462                	c.swsp	s8,8(sp)
  24:	c266                	c.swsp	s9,4(sp)
  26:	8a2e                	c.mv	s4,a1
  28:	84b2                	c.mv	s1,a2
  2a:	00000097          	auipc	ra,0x0
  2e:	000080e7          	jalr	ra,0(ra) # 2a <.LVL432+0x22>

00000032 <.LVL433>:
  32:	000007b7          	lui	a5,0x0
  36:	00078713          	addi	a4,a5,0 # 0 <llcp_channel_map_ind_handler>
  3a:	002b1693          	slli	a3,s6,0x2
  3e:	9736                	c.add	a4,a3
  40:	4300                	c.lw	s0,0(a4)
  42:	0986                	c.slli	s3,0x1

00000044 <.LVL434>:
  44:	892a                	c.mv	s2,a0

00000046 <.LVL435>:
  46:	00078713          	addi	a4,a5,0
  4a:	c08d                	c.beqz	s1,6c <.L243>
  4c:	000a80a3          	sb	zero,1(s5)

00000050 <.L244>:
  50:	00d707b3          	add	a5,a4,a3
  54:	439c                	c.lw	a5,0(a5)
  56:	0a57c783          	lbu	a5,165(a5)
  5a:	8ba1                	c.andi	a5,8
  5c:	cb8d                	c.beqz	a5,8e <.L246>
  5e:	4791                	c.li	a5,4
  60:	00fa80a3          	sb	a5,1(s5)
  64:	ec9d                	c.bnez	s1,a2 <.L241>

00000066 <.L247>:
  66:	03d00593          	addi	a1,zero,61
  6a:	a8f9                	c.j	148 <.L265>

0000006c <.L243>:
  6c:	001ac783          	lbu	a5,1(s5)
  70:	d3e5                	c.beqz	a5,50 <.L244>
  72:	17fd                	c.addi	a5,-1
  74:	0ff7f793          	andi	a5,a5,255
  78:	4711                	c.li	a4,4
  7a:	02f76463          	bltu	a4,a5,a2 <.L241>
  7e:	00000737          	lui	a4,0x0
  82:	078a                	c.slli	a5,0x2
  84:	00070713          	addi	a4,a4,0 # 0 <llcp_channel_map_ind_handler>
  88:	97ba                	c.add	a5,a4
  8a:	439c                	c.lw	a5,0(a5)
  8c:	8782                	c.jr	a5

0000008e <.L246>:
  8e:	4808                	c.lw	a0,16(s0)
  90:	00000097          	auipc	ra,0x0
  94:	000080e7          	jalr	ra,0(ra) # 90 <.L246+0x2>

00000098 <.LVL436>:
  98:	c11d                	c.beqz	a0,be <.L249>
  9a:	4789                	c.li	a5,2
  9c:	00fa80a3          	sb	a5,1(s5)
  a0:	c8d5                	c.beqz	s1,154 <.L251>

000000a2 <.L241>:
  a2:	50b2                	c.lwsp	ra,44(sp)
  a4:	5422                	c.lwsp	s0,40(sp)

000000a6 <.LVL438>:
  a6:	854e                	c.mv	a0,s3
  a8:	5492                	c.lwsp	s1,36(sp)
  aa:	5902                	c.lwsp	s2,32(sp)
  ac:	49f2                	c.lwsp	s3,28(sp)

000000ae <.LVL439>:
  ae:	4a62                	c.lwsp	s4,24(sp)
  b0:	4ad2                	c.lwsp	s5,20(sp)

000000b2 <.LVL440>:
  b2:	4b42                	c.lwsp	s6,16(sp)
  b4:	4bb2                	c.lwsp	s7,12(sp)

000000b6 <.LVL441>:
  b6:	4c22                	c.lwsp	s8,8(sp)
  b8:	4c92                	c.lwsp	s9,4(sp)
  ba:	6145                	c.addi16sp	sp,48
  bc:	8082                	c.jr	ra

000000be <.L249>:
  be:	855a                	c.mv	a0,s6
  c0:	00000097          	auipc	ra,0x0
  c4:	000080e7          	jalr	ra,0(ra) # c0 <.L249+0x2>

000000c8 <.LVL443>:
  c8:	4791                	c.li	a5,4
  ca:	00f51563          	bne	a0,a5,d4 <.L252>

000000ce <.LBB627>:
  ce:	00297793          	andi	a5,s2,2
  d2:	c799                	c.beqz	a5,e0 <.L253>

000000d4 <.L252>:
  d4:	4795                	c.li	a5,5
  d6:	00fa80a3          	sb	a5,1(s5)
  da:	f4e1                	c.bnez	s1,a2 <.L241>

000000dc <.L254>:
  dc:	4645                	c.li	a2,17
  de:	a8ad                	c.j	158 <.L266>

000000e0 <.L253>:
  e0:	01042c03          	lw	s8,16(s0)
  e4:	006bdc83          	lhu	s9,6(s7)

000000e8 <.LBB630>:
  e8:	6721                	c.lui	a4,0x8
  ea:	060c5783          	lhu	a5,96(s8)
  ee:	1779                	c.addi	a4,-2
  f0:	40fc87b3          	sub	a5,s9,a5
  f4:	07c2                	c.slli	a5,0x10
  f6:	83c1                	c.srli	a5,0x10
  f8:	04f76263          	bltu	a4,a5,13c <.L255>
  fc:	4615                	c.li	a2,5
  fe:	001b8593          	addi	a1,s7,1
 102:	06340513          	addi	a0,s0,99
 106:	00000097          	auipc	ra,0x0
 10a:	000080e7          	jalr	ra,0(ra) # 106 <.LBB630+0x1e>

0000010e <.LVL446>:
 10e:	85e6                	c.mv	a1,s9
 110:	8562                	c.mv	a0,s8
 112:	00000097          	auipc	ra,0x0
 116:	000080e7          	jalr	ra,0(ra) # 112 <.LVL446+0x4>

0000011a <.LVL447>:
 11a:	4785                	c.li	a5,1
 11c:	00fa80a3          	sb	a5,1(s5)

00000120 <.LBE630>:
 120:	f0c9                	c.bnez	s1,a2 <.L241>

00000122 <.L256>:
 122:	05c45783          	lhu	a5,92(s0)
 126:	01479713          	slli	a4,a5,0x14
 12a:	02075f63          	bge	a4,zero,168 <.L259>
 12e:	777d                	c.lui	a4,0xfffff
 130:	7ff70713          	addi	a4,a4,2047 # fffff7ff <.LASF870+0xffffab49>
 134:	8ff9                	c.and	a5,a4
 136:	04f41e23          	sh	a5,92(s0)
 13a:	b7a5                	c.j	a2 <.L241>

0000013c <.L255>:
 13c:	478d                	c.li	a5,3
 13e:	00fa80a3          	sb	a5,1(s5)

00000142 <.LBE631>:
 142:	f0a5                	c.bnez	s1,a2 <.L241>

00000144 <.L257>:
 144:	02800593          	addi	a1,zero,40

00000148 <.L265>:
 148:	855a                	c.mv	a0,s6
 14a:	00000097          	auipc	ra,0x0
 14e:	000080e7          	jalr	ra,0(ra) # 14a <.L265+0x2>

00000152 <.LVL451>:
 152:	bf81                	c.j	a2 <.L241>

00000154 <.L251>:
 154:	02300613          	addi	a2,zero,35

00000158 <.L266>:
 158:	000bc583          	lbu	a1,0(s7)
 15c:	855a                	c.mv	a0,s6
 15e:	00000097          	auipc	ra,0x0
 162:	000080e7          	jalr	ra,0(ra) # 15e <.L266+0x6>

00000166 <.LVL452>:
 166:	bf35                	c.j	a2 <.L241>

00000168 <.L259>:
 168:	4007e793          	ori	a5,a5,1024
 16c:	04f41e23          	sh	a5,92(s0)

00000170 <.LBB632>:
 170:	00296593          	ori	a1,s2,2

00000174 <.LBE632>:
 174:	4785                	c.li	a5,1
 176:	0af40223          	sb	a5,164(s0)

0000017a <.LBB635>:
 17a:	0ff5f593          	andi	a1,a1,255
 17e:	8552                	c.mv	a0,s4
 180:	00000097          	auipc	ra,0x0
 184:	000080e7          	jalr	ra,0(ra) # 180 <.LBB635+0x6>

00000188 <.LBE635>:
 188:	bf29                	c.j	a2 <.L241>

Disassembly of section .text.llcp_con_upd_ind_handler:

00000000 <llcp_con_upd_ind_handler>:
   0:	7179                	c.addi16sp	sp,-48
   2:	c462                	c.swsp	s8,8(sp)
   4:	00000c37          	lui	s8,0x0
   8:	c266                	c.swsp	s9,4(sp)
   a:	000c0793          	addi	a5,s8,0 # 0 <llcp_con_upd_ind_handler>
   e:	00251c93          	slli	s9,a0,0x2
  12:	d226                	c.swsp	s1,36(sp)
  14:	d04a                	c.swsp	s2,32(sp)
  16:	ce4e                	c.swsp	s3,28(sp)
  18:	cc52                	c.swsp	s4,24(sp)
  1a:	ca56                	c.swsp	s5,20(sp)
  1c:	c85a                	c.swsp	s6,16(sp)
  1e:	c65e                	c.swsp	s7,12(sp)
  20:	d606                	c.swsp	ra,44(sp)
  22:	d422                	c.swsp	s0,40(sp)
  24:	97e6                	c.add	a5,s9
  26:	8aaa                	c.mv	s5,a0
  28:	852e                	c.mv	a0,a1

0000002a <.LVL456>:
  2a:	00c039b3          	sltu	s3,zero,a2
  2e:	8a2e                	c.mv	s4,a1
  30:	8b32                	c.mv	s6,a2
  32:	84b6                	c.mv	s1,a3
  34:	ffe68b93          	addi	s7,a3,-2
  38:	4380                	c.lw	s0,0(a5)
  3a:	00000097          	auipc	ra,0x0
  3e:	000080e7          	jalr	ra,0(ra) # 3a <.LVL456+0x10>

00000042 <.LVL457>:
  42:	0986                	c.slli	s3,0x1

00000044 <.LVL458>:
  44:	892a                	c.mv	s2,a0

00000046 <.LVL459>:
  46:	000c0c13          	addi	s8,s8,0
  4a:	020b0363          	beq	s6,zero,70 <.L269>
  4e:	000b80a3          	sb	zero,1(s7)

00000052 <.L270>:
  52:	9c66                	c.add	s8,s9
  54:	000c2783          	lw	a5,0(s8)
  58:	0a57c783          	lbu	a5,165(a5)
  5c:	8ba1                	c.andi	a5,8
  5e:	cb95                	c.beqz	a5,92 <.L272>
  60:	4791                	c.li	a5,4
  62:	00fb80a3          	sb	a5,1(s7)
  66:	120b1f63          	bne	s6,zero,1a4 <.L267>

0000006a <.L273>:
  6a:	03d00593          	addi	a1,zero,61
  6e:	aa99                	c.j	1c4 <.L296>

00000070 <.L269>:
  70:	001bc783          	lbu	a5,1(s7)
  74:	dff9                	c.beqz	a5,52 <.L270>
  76:	17fd                	c.addi	a5,-1
  78:	0ff7f793          	andi	a5,a5,255
  7c:	4711                	c.li	a4,4
  7e:	12f76363          	bltu	a4,a5,1a4 <.L267>
  82:	00000737          	lui	a4,0x0
  86:	078a                	c.slli	a5,0x2
  88:	00070713          	addi	a4,a4,0 # 0 <llcp_con_upd_ind_handler>
  8c:	97ba                	c.add	a5,a4
  8e:	439c                	c.lw	a5,0(a5)
  90:	8782                	c.jr	a5

00000092 <.L272>:
  92:	4808                	c.lw	a0,16(s0)
  94:	00000097          	auipc	ra,0x0
  98:	000080e7          	jalr	ra,0(ra) # 94 <.L272+0x2>

0000009c <.LVL460>:
  9c:	c105                	c.beqz	a0,bc <.L275>
  9e:	4789                	c.li	a5,2
  a0:	00fb80a3          	sb	a5,1(s7)
  a4:	100b1063          	bne	s6,zero,1a4 <.L267>

000000a8 <.L277>:
  a8:	02300613          	addi	a2,zero,35

000000ac <.L297>:
  ac:	0004c583          	lbu	a1,0(s1)
  b0:	8556                	c.mv	a0,s5
  b2:	00000097          	auipc	ra,0x0
  b6:	000080e7          	jalr	ra,0(ra) # b2 <.L297+0x6>

000000ba <.LVL461>:
  ba:	a0ed                	c.j	1a4 <.L267>

000000bc <.L275>:
  bc:	8556                	c.mv	a0,s5
  be:	00000097          	auipc	ra,0x0
  c2:	000080e7          	jalr	ra,0(ra) # be <.L275+0x2>

000000c6 <.LVL462>:
  c6:	4791                	c.li	a5,4
  c8:	00f50963          	beq	a0,a5,da <.L278>
  cc:	4795                	c.li	a5,5
  ce:	00fb80a3          	sb	a5,1(s7)
  d2:	0c0b1963          	bne	s6,zero,1a4 <.L267>

000000d6 <.L279>:
  d6:	4645                	c.li	a2,17
  d8:	bfd1                	c.j	ac <.L297>

000000da <.L278>:
  da:	4814                	c.lw	a3,16(s0)

000000dc <.LVL464>:
  dc:	00a4d783          	lhu	a5,10(s1)
  e0:	0606d703          	lhu	a4,96(a3)
  e4:	8f99                	c.sub	a5,a4
  e6:	07c2                	c.slli	a5,0x10
  e8:	6721                	c.lui	a4,0x8
  ea:	83c1                	c.srli	a5,0x10
  ec:	1779                	c.addi	a4,-2
  ee:	0af76663          	bltu	a4,a5,19a <.L280>
  f2:	0786d783          	lhu	a5,120(a3)
  f6:	0014c703          	lbu	a4,1(s1)
  fa:	8385                	c.srli	a5,0x1
  fc:	00f76563          	bltu	a4,a5,106 <.L281>

00000100 <.LVL465>:
 100:	17fd                	c.addi	a5,-1

00000102 <.LVL466>:
 102:	00f480a3          	sb	a5,1(s1)

00000106 <.L281>:
 106:	0084d783          	lhu	a5,8(s1)

0000010a <.LBB638>:
 10a:	4808                	c.lw	a0,16(s0)
 10c:	85a6                	c.mv	a1,s1
 10e:	04f41b23          	sh	a5,86(s0)

00000112 <.LVL469>:
 112:	00000097          	auipc	ra,0x0
 116:	000080e7          	jalr	ra,0(ra) # 112 <.LVL469>

0000011a <.LVL470>:
 11a:	4785                	c.li	a5,1
 11c:	00fb80a3          	sb	a5,1(s7)

00000120 <.LBE638>:
 120:	080b1263          	bne	s6,zero,1a4 <.L267>

00000124 <.L282>:
 124:	00197793          	andi	a5,s2,1
 128:	c3a1                	c.beqz	a5,168 <.L285>
 12a:	0a344783          	lbu	a5,163(s0)
 12e:	4705                	c.li	a4,1
 130:	17e5                	c.addi	a5,-7
 132:	0ff7f793          	andi	a5,a5,255
 136:	02f76963          	bltu	a4,a5,168 <.L285>
 13a:	85d2                	c.mv	a1,s4
 13c:	10200513          	addi	a0,zero,258
 140:	00000097          	auipc	ra,0x0
 144:	000080e7          	jalr	ra,0(ra) # 140 <.L282+0x1c>

00000148 <.LBB641>:
 148:	0fe97913          	andi	s2,s2,254

0000014c <.LVL473>:
 14c:	85ca                	c.mv	a1,s2
 14e:	8552                	c.mv	a0,s4

00000150 <.LBE641>:
 150:	0a0401a3          	sb	zero,163(s0)

00000154 <.LBB644>:
 154:	00000097          	auipc	ra,0x0
 158:	000080e7          	jalr	ra,0(ra) # 154 <.LBB644>

0000015c <.LBE644>:
 15c:	4581                	c.li	a1,0
 15e:	8556                	c.mv	a0,s5
 160:	00000097          	auipc	ra,0x0
 164:	000080e7          	jalr	ra,0(ra) # 160 <.LBE644+0x4>

00000168 <.L285>:
 168:	0a444703          	lbu	a4,164(s0)
 16c:	478d                	c.li	a5,3
 16e:	00f71963          	bne	a4,a5,180 <.L286>
 172:	85d2                	c.mv	a1,s4
 174:	10200513          	addi	a0,zero,258
 178:	00000097          	auipc	ra,0x0
 17c:	000080e7          	jalr	ra,0(ra) # 178 <.L285+0x10>

00000180 <.L286>:
 180:	05c45783          	lhu	a5,92(s0)
 184:	01479713          	slli	a4,a5,0x14
 188:	04075463          	bge	a4,zero,1d0 <.L287>
 18c:	777d                	c.lui	a4,0xfffff
 18e:	7ff70713          	addi	a4,a4,2047 # fffff7ff <.LASF870+0xffffab49>
 192:	8ff9                	c.and	a5,a4
 194:	04f41e23          	sh	a5,92(s0)
 198:	a031                	c.j	1a4 <.L267>

0000019a <.L280>:
 19a:	478d                	c.li	a5,3
 19c:	00fb80a3          	sb	a5,1(s7)

000001a0 <.LBE645>:
 1a0:	020b0063          	beq	s6,zero,1c0 <.L283>

000001a4 <.L267>:
 1a4:	50b2                	c.lwsp	ra,44(sp)
 1a6:	5422                	c.lwsp	s0,40(sp)

000001a8 <.LVL480>:
 1a8:	854e                	c.mv	a0,s3
 1aa:	5492                	c.lwsp	s1,36(sp)

000001ac <.LVL481>:
 1ac:	5902                	c.lwsp	s2,32(sp)
 1ae:	49f2                	c.lwsp	s3,28(sp)

000001b0 <.LVL482>:
 1b0:	4a62                	c.lwsp	s4,24(sp)
 1b2:	4ad2                	c.lwsp	s5,20(sp)
 1b4:	4b42                	c.lwsp	s6,16(sp)
 1b6:	4bb2                	c.lwsp	s7,12(sp)

000001b8 <.LVL483>:
 1b8:	4c22                	c.lwsp	s8,8(sp)
 1ba:	4c92                	c.lwsp	s9,4(sp)
 1bc:	6145                	c.addi16sp	sp,48
 1be:	8082                	c.jr	ra

000001c0 <.L283>:
 1c0:	02800593          	addi	a1,zero,40

000001c4 <.L296>:
 1c4:	8556                	c.mv	a0,s5
 1c6:	00000097          	auipc	ra,0x0
 1ca:	000080e7          	jalr	ra,0(ra) # 1c6 <.L296+0x2>

000001ce <.LVL485>:
 1ce:	bfd9                	c.j	1a4 <.L267>

000001d0 <.L287>:
 1d0:	4007e793          	ori	a5,a5,1024
 1d4:	04f41e23          	sh	a5,92(s0)

000001d8 <.LBB646>:
 1d8:	00296593          	ori	a1,s2,2

000001dc <.LBE646>:
 1dc:	4791                	c.li	a5,4
 1de:	0af40223          	sb	a5,164(s0)

000001e2 <.LBB649>:
 1e2:	0ff5f593          	andi	a1,a1,255
 1e6:	8552                	c.mv	a0,s4
 1e8:	00000097          	auipc	ra,0x0
 1ec:	000080e7          	jalr	ra,0(ra) # 1e8 <.LBB649+0x6>

000001f0 <.LBE649>:
 1f0:	bf55                	c.j	1a4 <.L267>

Disassembly of section .text.llc_llcp_con_update_pdu_send:

00000000 <llc_llcp_con_update_pdu_send>:
   0:	1101                	c.addi	sp,-32
   2:	ce06                	c.swsp	ra,28(sp)
   4:	0015c783          	lbu	a5,1(a1)
   8:	4601                	c.li	a2,0
   a:	0ff57513          	andi	a0,a0,255

0000000e <.LVL489>:
   e:	00f102a3          	sb	a5,5(sp)
  12:	0025d783          	lhu	a5,2(a1)
  16:	00010223          	sb	zero,4(sp)
  1a:	00f11323          	sh	a5,6(sp)
  1e:	0045d783          	lhu	a5,4(a1)
  22:	00f11423          	sh	a5,8(sp)
  26:	0065d783          	lhu	a5,6(a1)
  2a:	00f11523          	sh	a5,10(sp)
  2e:	0085d783          	lhu	a5,8(a1)
  32:	00f11623          	sh	a5,12(sp)
  36:	00a5d783          	lhu	a5,10(a1)
  3a:	004c                	c.addi4spn	a1,sp,4

0000003c <.LVL495>:
  3c:	00f11723          	sh	a5,14(sp)
  40:	00000097          	auipc	ra,0x0
  44:	000080e7          	jalr	ra,0(ra) # 40 <.LVL495+0x4>

00000048 <.LVL496>:
  48:	40f2                	c.lwsp	ra,28(sp)
  4a:	6105                	c.addi16sp	sp,32
  4c:	8082                	c.jr	ra

Disassembly of section .text.llc_llcp_con_param_req_pdu_send:

00000000 <llc_llcp_con_param_req_pdu_send>:
   0:	7179                	c.addi16sp	sp,-48
   2:	d606                	c.swsp	ra,44(sp)
   4:	47bd                	c.li	a5,15
   6:	00f10223          	sb	a5,4(sp)
   a:	00e5d783          	lhu	a5,14(a1)
   e:	463d                	c.li	a2,15
  10:	0ff57513          	andi	a0,a0,255

00000014 <.LVL499>:
  14:	00f11323          	sh	a5,6(sp)
  18:	0105d783          	lhu	a5,16(a1)
  1c:	00f11423          	sh	a5,8(sp)
  20:	0065d783          	lhu	a5,6(a1)
  24:	00f11523          	sh	a5,10(sp)
  28:	0085d783          	lhu	a5,8(a1)
  2c:	00f11623          	sh	a5,12(sp)
  30:	0125c783          	lbu	a5,18(a1)
  34:	00f10723          	sb	a5,14(sp)
  38:	0145d783          	lhu	a5,20(a1)
  3c:	00f11823          	sh	a5,16(sp)
  40:	0165d783          	lhu	a5,22(a1)
  44:	00f11923          	sh	a5,18(sp)
  48:	0185d783          	lhu	a5,24(a1)
  4c:	00f11a23          	sh	a5,20(sp)
  50:	01a5d783          	lhu	a5,26(a1)
  54:	00f11b23          	sh	a5,22(sp)
  58:	01c5d783          	lhu	a5,28(a1)
  5c:	00f11c23          	sh	a5,24(sp)
  60:	01e5d783          	lhu	a5,30(a1)
  64:	00f11d23          	sh	a5,26(sp)
  68:	0205d783          	lhu	a5,32(a1)
  6c:	004c                	c.addi4spn	a1,sp,4

0000006e <.LVL510>:
  6e:	00f11e23          	sh	a5,28(sp)
  72:	00000097          	auipc	ra,0x0
  76:	000080e7          	jalr	ra,0(ra) # 72 <.LVL510+0x4>

0000007a <.LVL511>:
  7a:	50b2                	c.lwsp	ra,44(sp)
  7c:	6145                	c.addi16sp	sp,48
  7e:	8082                	c.jr	ra

Disassembly of section .text.llc_llcp_con_param_rsp_pdu_send:

00000000 <llc_llcp_con_param_rsp_pdu_send>:
   0:	7179                	c.addi16sp	sp,-48
   2:	d606                	c.swsp	ra,44(sp)
   4:	47c1                	c.li	a5,16
   6:	00f10223          	sb	a5,4(sp)
   a:	00e5d783          	lhu	a5,14(a1)
   e:	4641                	c.li	a2,16
  10:	0ff57513          	andi	a0,a0,255

00000014 <.LVL514>:
  14:	00f11323          	sh	a5,6(sp)
  18:	0105d783          	lhu	a5,16(a1)
  1c:	00f11423          	sh	a5,8(sp)
  20:	0065d783          	lhu	a5,6(a1)
  24:	00f11523          	sh	a5,10(sp)
  28:	0085d783          	lhu	a5,8(a1)
  2c:	00f11623          	sh	a5,12(sp)
  30:	0125c783          	lbu	a5,18(a1)
  34:	00f10723          	sb	a5,14(sp)
  38:	0145d783          	lhu	a5,20(a1)
  3c:	00f11823          	sh	a5,16(sp)
  40:	0165d783          	lhu	a5,22(a1)
  44:	00f11923          	sh	a5,18(sp)
  48:	0185d783          	lhu	a5,24(a1)
  4c:	00f11a23          	sh	a5,20(sp)
  50:	01a5d783          	lhu	a5,26(a1)
  54:	00f11b23          	sh	a5,22(sp)
  58:	01c5d783          	lhu	a5,28(a1)
  5c:	00f11c23          	sh	a5,24(sp)
  60:	01e5d783          	lhu	a5,30(a1)
  64:	00f11d23          	sh	a5,26(sp)
  68:	0205d783          	lhu	a5,32(a1)
  6c:	004c                	c.addi4spn	a1,sp,4

0000006e <.LVL525>:
  6e:	00f11e23          	sh	a5,28(sp)
  72:	00000097          	auipc	ra,0x0
  76:	000080e7          	jalr	ra,0(ra) # 72 <.LVL525+0x4>

0000007a <.LVL526>:
  7a:	50b2                	c.lwsp	ra,44(sp)
  7c:	6145                	c.addi16sp	sp,48
  7e:	8082                	c.jr	ra

Disassembly of section .text.llcp_con_param_req_handler:

00000000 <llcp_con_param_req_handler>:
   0:	715d                	c.addi16sp	sp,-80
   2:	c2a6                	c.swsp	s1,68(sp)
   4:	84aa                	c.mv	s1,a0
   6:	852e                	c.mv	a0,a1

00000008 <.LVL528>:
   8:	c4a2                	c.swsp	s0,72(sp)
   a:	c0ca                	c.swsp	s2,64(sp)
   c:	de4e                	c.swsp	s3,60(sp)
   e:	c686                	c.swsp	ra,76(sp)
  10:	dc52                	c.swsp	s4,56(sp)
  12:	da56                	c.swsp	s5,52(sp)
  14:	89ae                	c.mv	s3,a1
  16:	8436                	c.mv	s0,a3
  18:	00000097          	auipc	ra,0x0
  1c:	000080e7          	jalr	ra,0(ra) # 18 <.LVL528+0x10>

00000020 <.LVL529>:
  20:	000007b7          	lui	a5,0x0
  24:	00249713          	slli	a4,s1,0x2
  28:	00078793          	addi	a5,a5,0 # 0 <llcp_con_param_req_handler>
  2c:	97ba                	c.add	a5,a4
  2e:	0007a903          	lw	s2,0(a5)

00000032 <.LVL530>:
  32:	0a594783          	lbu	a5,165(s2)
  36:	8ba1                	c.andi	a5,8
  38:	c395                	c.beqz	a5,5c <.L305>
  3a:	03d00593          	addi	a1,zero,61
  3e:	8526                	c.mv	a0,s1

00000040 <.LVL531>:
  40:	00000097          	auipc	ra,0x0
  44:	000080e7          	jalr	ra,0(ra) # 40 <.LVL531>

00000048 <.L306>:
  48:	40b6                	c.lwsp	ra,76(sp)
  4a:	4426                	c.lwsp	s0,72(sp)

0000004c <.LVL533>:
  4c:	4496                	c.lwsp	s1,68(sp)
  4e:	4906                	c.lwsp	s2,64(sp)

00000050 <.LVL534>:
  50:	59f2                	c.lwsp	s3,60(sp)
  52:	5a62                	c.lwsp	s4,56(sp)
  54:	5ad2                	c.lwsp	s5,52(sp)
  56:	4501                	c.li	a0,0
  58:	6161                	c.addi16sp	sp,80
  5a:	8082                	c.jr	ra

0000005c <.L305>:
  5c:	00257793          	andi	a5,a0,2
  60:	8a2a                	c.mv	s4,a0

00000062 <.LBB650>:
  62:	cb99                	c.beqz	a5,78 <.L307>

00000064 <.L309>:
  64:	02300613          	addi	a2,zero,35

00000068 <.L326>:
  68:	00044583          	lbu	a1,0(s0)

0000006c <.L323>:
  6c:	8526                	c.mv	a0,s1
  6e:	00000097          	auipc	ra,0x0
  72:	000080e7          	jalr	ra,0(ra) # 6e <.L323+0x2>

00000076 <.LVL538>:
  76:	bfc9                	c.j	48 <.L306>

00000078 <.L307>:
  78:	8526                	c.mv	a0,s1

0000007a <.LVL540>:
  7a:	00000097          	auipc	ra,0x0
  7e:	000080e7          	jalr	ra,0(ra) # 7a <.LVL540>

00000082 <.LVL541>:
  82:	478d                	c.li	a5,3
  84:	02f51363          	bne	a0,a5,aa <.L308>

00000088 <.LBB664>:
  88:	001a7793          	andi	a5,s4,1
  8c:	cf99                	c.beqz	a5,aa <.L308>
  8e:	0a394783          	lbu	a5,163(s2)
  92:	471d                	c.li	a4,7
  94:	fce788e3          	beq	a5,a4,64 <.L309>
  98:	4725                	c.li	a4,9
  9a:	fce785e3          	beq	a5,a4,64 <.L309>
  9e:	4719                	c.li	a4,6
  a0:	00e79563          	bne	a5,a4,aa <.L308>
  a4:	02a00613          	addi	a2,zero,42
  a8:	b7c1                	c.j	68 <.L326>

000000aa <.L308>:
  aa:	00245583          	lhu	a1,2(s0)
  ae:	00445703          	lhu	a4,4(s0)
  b2:	04b76263          	bltu	a4,a1,f6 <.L311>
  b6:	00645603          	lhu	a2,6(s0)
  ba:	1f300793          	addi	a5,zero,499
  be:	02c7ec63          	bltu	a5,a2,f6 <.L311>
  c2:	6785                	c.lui	a5,0x1
  c4:	c8078693          	addi	a3,a5,-896 # c80 <.LLST83+0xb>
  c8:	02e6e763          	bltu	a3,a4,f6 <.L311>
  cc:	4695                	c.li	a3,5
  ce:	02b6f463          	bgeu	a3,a1,f6 <.L311>
  d2:	00845683          	lhu	a3,8(s0)
  d6:	c7678793          	addi	a5,a5,-906
  da:	ff668513          	addi	a0,a3,-10
  de:	0542                	c.slli	a0,0x10
  e0:	8141                	c.srli	a0,0x10
  e2:	00a7ea63          	bltu	a5,a0,f6 <.L311>
  e6:	00160793          	addi	a5,a2,1
  ea:	02e787b3          	mul	a5,a5,a4
  ee:	00269513          	slli	a0,a3,0x2
  f2:	00a7e563          	bltu	a5,a0,fc <.L312>

000000f6 <.L311>:
  f6:	4679                	c.li	a2,30

000000f8 <.L325>:
  f8:	45bd                	c.li	a1,15
  fa:	bf8d                	c.j	6c <.L323>

000000fc <.L312>:
  fc:	01092503          	lw	a0,16(s2)
 100:	07855783          	lhu	a5,120(a0)
 104:	8385                	c.srli	a5,0x1
 106:	00b7ed63          	bltu	a5,a1,120 <.L313>
 10a:	00f76b63          	bltu	a4,a5,120 <.L313>
 10e:	05e55783          	lhu	a5,94(a0)
 112:	17fd                	c.addi	a5,-1
 114:	00f61663          	bne	a2,a5,120 <.L313>
 118:	05495783          	lhu	a5,84(s2)
 11c:	08d78d63          	beq	a5,a3,1b6 <.L314>

00000120 <.L313>:
 120:	4515                	c.li	a0,5
 122:	00000097          	auipc	ra,0x0
 126:	000080e7          	jalr	ra,0(ra) # 122 <.L313+0x2>

0000012a <.LVL546>:
 12a:	c541                	c.beqz	a0,1b2 <.L315>

0000012c <.LBB660>:
 12c:	02200693          	addi	a3,zero,34
 130:	864e                	c.mv	a2,s3
 132:	85ce                	c.mv	a1,s3
 134:	10900513          	addi	a0,zero,265
 138:	00000097          	auipc	ra,0x0
 13c:	000080e7          	jalr	ra,0(ra) # 138 <.LBB660+0xc>

00000140 <.LVL547>:
 140:	470d                	c.li	a4,3
 142:	87aa                	c.mv	a5,a0

00000144 <.LVL548>:
 144:	00e50023          	sb	a4,0(a0)

00000148 <.L324>:
 148:	00245703          	lhu	a4,2(s0)
 14c:	00e79723          	sh	a4,14(a5)
 150:	00445703          	lhu	a4,4(s0)
 154:	00e79823          	sh	a4,16(a5)
 158:	00645703          	lhu	a4,6(s0)
 15c:	00e79323          	sh	a4,6(a5)
 160:	00845703          	lhu	a4,8(s0)
 164:	00e79423          	sh	a4,8(a5)
 168:	00a44703          	lbu	a4,10(s0)
 16c:	00e78923          	sb	a4,18(a5)
 170:	00c45703          	lhu	a4,12(s0)
 174:	00e79a23          	sh	a4,20(a5)
 178:	00e45703          	lhu	a4,14(s0)
 17c:	00e79b23          	sh	a4,22(a5)
 180:	01045703          	lhu	a4,16(s0)
 184:	00e79c23          	sh	a4,24(a5)
 188:	01245703          	lhu	a4,18(s0)
 18c:	00e79d23          	sh	a4,26(a5)
 190:	01445703          	lhu	a4,20(s0)
 194:	00e79e23          	sh	a4,28(a5)
 198:	01645703          	lhu	a4,22(s0)
 19c:	00e79f23          	sh	a4,30(a5)
 1a0:	01845703          	lhu	a4,24(s0)
 1a4:	02e79023          	sh	a4,32(a5)
 1a8:	00000097          	auipc	ra,0x0
 1ac:	000080e7          	jalr	ra,0(ra) # 1a8 <.L324+0x60>

000001b0 <.LBE661>:
 1b0:	bd61                	c.j	48 <.L306>

000001b2 <.L315>:
 1b2:	4669                	c.li	a2,26
 1b4:	b791                	c.j	f8 <.L325>

000001b6 <.L314>:
 1b6:	8526                	c.mv	a0,s1
 1b8:	00000097          	auipc	ra,0x0
 1bc:	000080e7          	jalr	ra,0(ra) # 1b8 <.L314+0x2>

000001c0 <.LVL552>:
 1c0:	4a8d                	c.li	s5,3
 1c2:	05551f63          	bne	a0,s5,220 <.L316>

000001c6 <.LBB662>:
 1c6:	02200693          	addi	a3,zero,34
 1ca:	864e                	c.mv	a2,s3
 1cc:	85ce                	c.mv	a1,s3
 1ce:	10900513          	addi	a0,zero,265
 1d2:	00000097          	auipc	ra,0x0
 1d6:	000080e7          	jalr	ra,0(ra) # 1d2 <.LBB662+0xc>

000001da <.LVL553>:
 1da:	4709                	c.li	a4,2
 1dc:	00e50023          	sb	a4,0(a0)
 1e0:	00245703          	lhu	a4,2(s0)
 1e4:	27100613          	addi	a2,zero,625
 1e8:	87aa                	c.mv	a5,a0

000001ea <.LVL554>:
 1ea:	00e51123          	sh	a4,2(a0)
 1ee:	00445703          	lhu	a4,4(s0)
 1f2:	00e51223          	sh	a4,4(a0)
 1f6:	05495703          	lhu	a4,84(s2)
 1fa:	00e51423          	sh	a4,8(a0)
 1fe:	01092703          	lw	a4,16(s2)
 202:	01275683          	lhu	a3,18(a4)
 206:	02c6d6b3          	divu	a3,a3,a2
 20a:	00d51523          	sh	a3,10(a0)
 20e:	01092703          	lw	a4,16(s2)
 212:	01275703          	lhu	a4,18(a4)
 216:	02c75733          	divu	a4,a4,a2
 21a:	00e51623          	sh	a4,12(a0)
 21e:	b72d                	c.j	148 <.L324>

00000220 <.L316>:
 220:	8526                	c.mv	a0,s1
 222:	00000097          	auipc	ra,0x0
 226:	000080e7          	jalr	ra,0(ra) # 222 <.L316+0x2>

0000022a <.LVL556>:
 22a:	4791                	c.li	a5,4
 22c:	e0f51ee3          	bne	a0,a5,48 <.L306>

00000230 <.LBB663>:
 230:	00245783          	lhu	a5,2(s0)
 234:	0070                	c.addi4spn	a2,sp,12
 236:	8526                	c.mv	a0,s1
 238:	00f11d23          	sh	a5,26(sp)
 23c:	00445783          	lhu	a5,4(s0)
 240:	00f11e23          	sh	a5,28(sp)
 244:	00645783          	lhu	a5,6(s0)
 248:	00f11923          	sh	a5,18(sp)
 24c:	00845783          	lhu	a5,8(s0)
 250:	00f11a23          	sh	a5,20(sp)
 254:	00a44783          	lbu	a5,10(s0)
 258:	00f10f23          	sb	a5,30(sp)
 25c:	00c45783          	lhu	a5,12(s0)
 260:	02f11023          	sh	a5,32(sp)
 264:	00e45783          	lhu	a5,14(s0)
 268:	02f11123          	sh	a5,34(sp)
 26c:	01045783          	lhu	a5,16(s0)
 270:	02f11223          	sh	a5,36(sp)
 274:	01245783          	lhu	a5,18(s0)
 278:	02f11323          	sh	a5,38(sp)
 27c:	01445783          	lhu	a5,20(s0)
 280:	02f11423          	sh	a5,40(sp)
 284:	01645783          	lhu	a5,22(s0)
 288:	02f11523          	sh	a5,42(sp)
 28c:	01845783          	lhu	a5,24(s0)
 290:	02f11623          	sh	a5,44(sp)
 294:	01092583          	lw	a1,16(s2)
 298:	00000097          	auipc	ra,0x0
 29c:	000080e7          	jalr	ra,0(ra) # 298 <.LBB663+0x68>

000002a0 <.LVL557>:
 2a0:	ed0d                	c.bnez	a0,2da <.L317>

000002a2 <.LBB655>:
 2a2:	002a6593          	ori	a1,s4,2
 2a6:	854e                	c.mv	a0,s3

000002a8 <.LBE655>:
 2a8:	0b590223          	sb	s5,164(s2)

000002ac <.LBB658>:
 2ac:	0ff5f593          	andi	a1,a1,255
 2b0:	00000097          	auipc	ra,0x0
 2b4:	000080e7          	jalr	ra,0(ra) # 2b0 <.LBB658+0x4>

000002b8 <.LBE658>:
 2b8:	006c                	c.addi4spn	a1,sp,12
 2ba:	8526                	c.mv	a0,s1
 2bc:	00000097          	auipc	ra,0x0
 2c0:	000080e7          	jalr	ra,0(ra) # 2bc <.LBE658+0x4>

000002c4 <.LVL560>:
 2c4:	6605                	c.lui	a2,0x1
 2c6:	fa060613          	addi	a2,a2,-96 # fa0 <.LASF394+0xb>
 2ca:	85ce                	c.mv	a1,s3
 2cc:	10200513          	addi	a0,zero,258
 2d0:	00000097          	auipc	ra,0x0
 2d4:	000080e7          	jalr	ra,0(ra) # 2d0 <.LVL560+0xc>

000002d8 <.LVL561>:
 2d8:	bb85                	c.j	48 <.L306>

000002da <.L317>:
 2da:	02000613          	addi	a2,zero,32
 2de:	bd29                	c.j	f8 <.L325>

Disassembly of section .text.llc_llcp_feats_req_pdu_send:

00000000 <llc_llcp_feats_req_pdu_send>:
   0:	1101                	c.addi	sp,-32
   2:	cc22                	c.swsp	s0,24(sp)
   4:	ce06                	c.swsp	ra,28(sp)
   6:	842a                	c.mv	s0,a0
   8:	00000097          	auipc	ra,0x0
   c:	000080e7          	jalr	ra,0(ra) # 8 <llc_llcp_feats_req_pdu_send+0x8>

00000010 <.LVL564>:
  10:	470d                	c.li	a4,3
  12:	47b9                	c.li	a5,14
  14:	00e51363          	bne	a0,a4,1a <.L328>
  18:	47a1                	c.li	a5,8

0000001a <.L328>:
  1a:	00510513          	addi	a0,sp,5
  1e:	00f10223          	sb	a5,4(sp)
  22:	00000097          	auipc	ra,0x0
  26:	000080e7          	jalr	ra,0(ra) # 22 <.L328+0x8>

0000002a <.LVL565>:
  2a:	00414603          	lbu	a2,4(sp)
  2e:	004c                	c.addi4spn	a1,sp,4
  30:	0ff47513          	andi	a0,s0,255
  34:	00000097          	auipc	ra,0x0
  38:	000080e7          	jalr	ra,0(ra) # 34 <.LVL565+0xa>

0000003c <.LVL566>:
  3c:	40f2                	c.lwsp	ra,28(sp)
  3e:	4462                	c.lwsp	s0,24(sp)
  40:	6105                	c.addi16sp	sp,32
  42:	8082                	c.jr	ra

Disassembly of section .text.llc_llcp_feats_rsp_pdu_send:

00000000 <llc_llcp_feats_rsp_pdu_send>:
   0:	1101                	c.addi	sp,-32
   2:	cc22                	c.swsp	s0,24(sp)
   4:	47a5                	c.li	a5,9
   6:	842a                	c.mv	s0,a0
   8:	00510513          	addi	a0,sp,5

0000000c <.LVL568>:
   c:	ce06                	c.swsp	ra,28(sp)
   e:	00f10223          	sb	a5,4(sp)
  12:	00000097          	auipc	ra,0x0
  16:	000080e7          	jalr	ra,0(ra) # 12 <.LVL568+0x6>

0000001a <.LVL569>:
  1a:	000007b7          	lui	a5,0x0
  1e:	00241713          	slli	a4,s0,0x2
  22:	00078793          	addi	a5,a5,0 # 0 <llc_llcp_feats_rsp_pdu_send>
  26:	97ba                	c.add	a5,a4
  28:	439c                	c.lw	a5,0(a5)
  2a:	00414603          	lbu	a2,4(sp)
  2e:	004c                	c.addi4spn	a1,sp,4
  30:	0697c783          	lbu	a5,105(a5)
  34:	0ff47513          	andi	a0,s0,255
  38:	00f102a3          	sb	a5,5(sp)
  3c:	00000097          	auipc	ra,0x0
  40:	000080e7          	jalr	ra,0(ra) # 3c <.LVL569+0x22>

00000044 <.LVL570>:
  44:	40f2                	c.lwsp	ra,28(sp)
  46:	4462                	c.lwsp	s0,24(sp)
  48:	6105                	c.addi16sp	sp,32
  4a:	8082                	c.jr	ra

Disassembly of section .text.llc_llcp_start_enc_req_pdu_send:

00000000 <llc_llcp_start_enc_req_pdu_send>:
   0:	05c00793          	addi	a5,zero,92
   4:	02f507b3          	mul	a5,a0,a5
   8:	28008737          	lui	a4,0x28008

0000000c <.LBE667>:
   c:	1101                	c.addi	sp,-32

0000000e <.LBB671>:
   e:	09270693          	addi	a3,a4,146 # 28008092 <.LASF870+0x280033dc>

00000012 <.LBE671>:
  12:	ce06                	c.swsp	ra,28(sp)
  14:	006c                	c.addi4spn	a1,sp,12

00000016 <.LBB672>:
  16:	96be                	c.add	a3,a5
  18:	0006d603          	lhu	a2,0(a3)

0000001c <.LBE672>:
  1c:	10066613          	ori	a2,a2,256

00000020 <.LBB673>:
  20:	00c69023          	sh	a2,0(a3)

00000024 <.LBE673>:
  24:	000006b7          	lui	a3,0x0
  28:	00251613          	slli	a2,a0,0x2
  2c:	00068693          	addi	a3,a3,0 # 0 <llc_llcp_start_enc_req_pdu_send>
  30:	96b2                	c.add	a3,a2
  32:	4290                	c.lw	a2,0(a3)
  34:	0ff57513          	andi	a0,a0,255

00000038 <.LVL574>:
  38:	0a564683          	lbu	a3,165(a2)
  3c:	0026e693          	ori	a3,a3,2
  40:	0ad602a3          	sb	a3,165(a2)

00000044 <.LBB675>:
  44:	0cc70693          	addi	a3,a4,204
  48:	96be                	c.add	a3,a5
  4a:	00069023          	sh	zero,0(a3)

0000004e <.LBB677>:
  4e:	0ce70693          	addi	a3,a4,206
  52:	96be                	c.add	a3,a5
  54:	00069023          	sh	zero,0(a3)

00000058 <.LBB679>:
  58:	0d070693          	addi	a3,a4,208
  5c:	96be                	c.add	a3,a5
  5e:	00069023          	sh	zero,0(a3)

00000062 <.LBB681>:
  62:	0d270693          	addi	a3,a4,210
  66:	96be                	c.add	a3,a5
  68:	00069023          	sh	zero,0(a3)

0000006c <.LBB683>:
  6c:	0d470693          	addi	a3,a4,212
  70:	96be                	c.add	a3,a5

00000072 <.LBB686>:
  72:	0d670713          	addi	a4,a4,214
  76:	97ba                	c.add	a5,a4

00000078 <.LBB689>:
  78:	00069023          	sh	zero,0(a3)

0000007c <.LBB690>:
  7c:	00079023          	sh	zero,0(a5)

00000080 <.LBE690>:
  80:	4615                	c.li	a2,5
  82:	4795                	c.li	a5,5
  84:	00f10623          	sb	a5,12(sp)
  88:	00000097          	auipc	ra,0x0
  8c:	000080e7          	jalr	ra,0(ra) # 88 <.LBE690+0x8>

00000090 <.LVL582>:
  90:	40f2                	c.lwsp	ra,28(sp)
  92:	6105                	c.addi16sp	sp,32
  94:	8082                	c.jr	ra

Disassembly of section .text.llc_llcp_terminate_ind_pdu_send:

00000000 <llc_llcp_terminate_ind_pdu_send>:
   0:	7179                	c.addi16sp	sp,-48
   2:	d422                	c.swsp	s0,40(sp)
   4:	00851413          	slli	s0,a0,0x8
   8:	00146413          	ori	s0,s0,1
   c:	000007b7          	lui	a5,0x0
  10:	0442                	c.slli	s0,0x10
  12:	00251713          	slli	a4,a0,0x2
  16:	00078793          	addi	a5,a5,0 # 0 <llc_llcp_terminate_ind_pdu_send>
  1a:	8041                	c.srli	s0,0x10
  1c:	97ba                	c.add	a5,a4
  1e:	d226                	c.swsp	s1,36(sp)
  20:	d606                	c.swsp	ra,44(sp)
  22:	d04a                	c.swsp	s2,32(sp)
  24:	84aa                	c.mv	s1,a0
  26:	8522                	c.mv	a0,s0

00000028 <.LVL584>:
  28:	c62e                	c.swsp	a1,12(sp)
  2a:	0007a903          	lw	s2,0(a5)

0000002e <.LVL585>:
  2e:	00000097          	auipc	ra,0x0
  32:	000080e7          	jalr	ra,0(ra) # 2e <.LVL585>

00000036 <.LVL586>:
  36:	45b2                	c.lwsp	a1,12(sp)
  38:	474d                	c.li	a4,19
  3a:	47d9                	c.li	a5,22
  3c:	00e58363          	beq	a1,a4,42 <.L337>
  40:	87ae                	c.mv	a5,a1

00000042 <.L337>:
  42:	00b10ea3          	sb	a1,29(sp)

00000046 <.LBB691>:
  46:	00f56593          	ori	a1,a0,15
  4a:	0af900a3          	sb	a5,161(s2)

0000004e <.LBB696>:
  4e:	8522                	c.mv	a0,s0

00000050 <.LBE696>:
  50:	4789                	c.li	a5,2

00000052 <.LBB697>:
  52:	0ff5f593          	andi	a1,a1,255

00000056 <.LBE697>:
  56:	00f10e23          	sb	a5,28(sp)

0000005a <.LBB698>:
  5a:	00000097          	auipc	ra,0x0
  5e:	000080e7          	jalr	ra,0(ra) # 5a <.LBB698>

00000062 <.LBE698>:
  62:	01c14603          	lbu	a2,28(sp)
  66:	086c                	c.addi4spn	a1,sp,28
  68:	0ff4f513          	andi	a0,s1,255
  6c:	00000097          	auipc	ra,0x0
  70:	000080e7          	jalr	ra,0(ra) # 6c <.LBE698+0xa>

00000074 <.LVL590>:
  74:	05495603          	lhu	a2,84(s2)
  78:	85a2                	c.mv	a1,s0
  7a:	10200513          	addi	a0,zero,258
  7e:	00000097          	auipc	ra,0x0
  82:	000080e7          	jalr	ra,0(ra) # 7e <.LVL590+0xa>

00000086 <.LVL591>:
  86:	50b2                	c.lwsp	ra,44(sp)
  88:	5422                	c.lwsp	s0,40(sp)

0000008a <.LVL592>:
  8a:	5492                	c.lwsp	s1,36(sp)

0000008c <.LVL593>:
  8c:	5902                	c.lwsp	s2,32(sp)

0000008e <.LVL594>:
  8e:	6145                	c.addi16sp	sp,48
  90:	8082                	c.jr	ra

Disassembly of section .text.llc_llcp_unknown_rsp_send_pdu:

00000000 <llc_llcp_unknown_rsp_send_pdu>:
   0:	1101                	c.addi	sp,-32
   2:	00b106a3          	sb	a1,13(sp)
   6:	479d                	c.li	a5,7
   8:	006c                	c.addi4spn	a1,sp,12

0000000a <.LVL596>:
   a:	461d                	c.li	a2,7
   c:	0ff57513          	andi	a0,a0,255

00000010 <.LVL597>:
  10:	ce06                	c.swsp	ra,28(sp)
  12:	00f10623          	sb	a5,12(sp)
  16:	00000097          	auipc	ra,0x0
  1a:	000080e7          	jalr	ra,0(ra) # 16 <.LVL597+0x6>

0000001e <.LVL598>:
  1e:	40f2                	c.lwsp	ra,28(sp)
  20:	6105                	c.addi16sp	sp,32
  22:	8082                	c.jr	ra

Disassembly of section .text.llc_llcp_unknown_ind_handler.isra.1:

00000000 <llc_llcp_unknown_ind_handler.isra.1>:
   0:	000007b7          	lui	a5,0x0
   4:	1141                	c.addi	sp,-16
   6:	00251713          	slli	a4,a0,0x2
   a:	00078793          	addi	a5,a5,0 # 0 <llc_llcp_unknown_ind_handler.isra.1>
   e:	c606                	c.swsp	ra,12(sp)
  10:	97ba                	c.add	a5,a4
  12:	439c                	c.lw	a5,0(a5)
  14:	0a57c783          	lbu	a5,165(a5)
  18:	8ba1                	c.andi	a5,8
  1a:	cb99                	c.beqz	a5,30 <.L344>
  1c:	03d00593          	addi	a1,zero,61

00000020 <.LVL600>:
  20:	00000097          	auipc	ra,0x0
  24:	000080e7          	jalr	ra,0(ra) # 20 <.LVL600>

00000028 <.L345>:
  28:	40b2                	c.lwsp	ra,12(sp)
  2a:	4501                	c.li	a0,0
  2c:	0141                	c.addi	sp,16
  2e:	8082                	c.jr	ra

00000030 <.L344>:
  30:	00000097          	auipc	ra,0x0
  34:	000080e7          	jalr	ra,0(ra) # 30 <.L344>

00000038 <.LVL603>:
  38:	bfc5                	c.j	28 <.L345>

Disassembly of section .text.llcp_feats_req_handler:

00000000 <llcp_feats_req_handler>:
   0:	7179                	c.addi16sp	sp,-48
   2:	d422                	c.swsp	s0,40(sp)
   4:	00000437          	lui	s0,0x0
   8:	ce4e                	c.swsp	s3,28(sp)
   a:	00040793          	addi	a5,s0,0 # 0 <llcp_feats_req_handler>
   e:	00251993          	slli	s3,a0,0x2
  12:	d226                	c.swsp	s1,36(sp)
  14:	97ce                	c.add	a5,s3
  16:	d606                	c.swsp	ra,44(sp)
  18:	d04a                	c.swsp	s2,32(sp)
  1a:	c636                	c.swsp	a3,12(sp)
  1c:	0007a903          	lw	s2,0(a5)

00000020 <.LVL605>:
  20:	84aa                	c.mv	s1,a0
  22:	00000097          	auipc	ra,0x0
  26:	000080e7          	jalr	ra,0(ra) # 22 <.LVL605+0x2>

0000002a <.LVL606>:
  2a:	4791                	c.li	a5,4
  2c:	00040413          	addi	s0,s0,0
  30:	46b2                	c.lwsp	a3,12(sp)
  32:	02f50563          	beq	a0,a5,5c <.L348>
  36:	0006c703          	lbu	a4,0(a3)
  3a:	47a1                	c.li	a5,8
  3c:	02f71063          	bne	a4,a5,5c <.L348>
  40:	45a1                	c.li	a1,8
  42:	8526                	c.mv	a0,s1
  44:	00000097          	auipc	ra,0x0
  48:	000080e7          	jalr	ra,0(ra) # 44 <.LVL606+0x1a>

0000004c <.L349>:
  4c:	50b2                	c.lwsp	ra,44(sp)
  4e:	5422                	c.lwsp	s0,40(sp)
  50:	5492                	c.lwsp	s1,36(sp)
  52:	5902                	c.lwsp	s2,32(sp)

00000054 <.LVL608>:
  54:	49f2                	c.lwsp	s3,28(sp)
  56:	4501                	c.li	a0,0
  58:	6145                	c.addi16sp	sp,48

0000005a <.LVL609>:
  5a:	8082                	c.jr	ra

0000005c <.L348>:
  5c:	944e                	c.add	s0,s3
  5e:	401c                	c.lw	a5,0(s0)
  60:	0a57c783          	lbu	a5,165(a5)
  64:	8ba1                	c.andi	a5,8
  66:	cb89                	c.beqz	a5,78 <.L350>
  68:	03d00593          	addi	a1,zero,61
  6c:	8526                	c.mv	a0,s1
  6e:	00000097          	auipc	ra,0x0
  72:	000080e7          	jalr	ra,0(ra) # 6e <.L348+0x12>

00000076 <.LVL611>:
  76:	bfd9                	c.j	4c <.L349>

00000078 <.L350>:
  78:	06990793          	addi	a5,s2,105
  7c:	0685                	c.addi	a3,1
  7e:	07190613          	addi	a2,s2,113

00000082 <.L351>:
  82:	0007c703          	lbu	a4,0(a5)
  86:	0006c583          	lbu	a1,0(a3)
  8a:	0785                	c.addi	a5,1

0000008c <.LVL613>:
  8c:	0685                	c.addi	a3,1
  8e:	8f6d                	c.and	a4,a1
  90:	fee78fa3          	sb	a4,-1(a5)
  94:	fec797e3          	bne	a5,a2,82 <.L351>

00000098 <.LBE699>:
  98:	05c95783          	lhu	a5,92(s2)
  9c:	8526                	c.mv	a0,s1
  9e:	0017e793          	ori	a5,a5,1
  a2:	04f91e23          	sh	a5,92(s2)
  a6:	00000097          	auipc	ra,0x0
  aa:	000080e7          	jalr	ra,0(ra) # a6 <.LBE699+0xe>

000000ae <.LVL614>:
  ae:	bf79                	c.j	4c <.L349>

Disassembly of section .text.llcp_slave_feature_req_handler:

00000000 <llcp_slave_feature_req_handler>:
   0:	1101                	c.addi	sp,-32
   2:	cc22                	c.swsp	s0,24(sp)
   4:	c62e                	c.swsp	a1,12(sp)
   6:	c432                	c.swsp	a2,8(sp)
   8:	c236                	c.swsp	a3,4(sp)
   a:	ce06                	c.swsp	ra,28(sp)
   c:	842a                	c.mv	s0,a0
   e:	00000097          	auipc	ra,0x0
  12:	000080e7          	jalr	ra,0(ra) # e <llcp_slave_feature_req_handler+0xe>

00000016 <.LVL616>:
  16:	478d                	c.li	a5,3
  18:	4692                	c.lwsp	a3,4(sp)
  1a:	4622                	c.lwsp	a2,8(sp)
  1c:	45b2                	c.lwsp	a1,12(sp)
  1e:	00f51a63          	bne	a0,a5,32 <.L358>
  22:	8522                	c.mv	a0,s0
  24:	4462                	c.lwsp	s0,24(sp)
  26:	40f2                	c.lwsp	ra,28(sp)
  28:	6105                	c.addi16sp	sp,32

0000002a <.LVL617>:
  2a:	00000317          	auipc	t1,0x0
  2e:	00030067          	jalr	zero,0(t1) # 2a <.LVL617>

00000032 <.L358>:
  32:	8522                	c.mv	a0,s0
  34:	45b9                	c.li	a1,14
  36:	00000097          	auipc	ra,0x0
  3a:	000080e7          	jalr	ra,0(ra) # 36 <.L358+0x4>

0000003e <.LVL619>:
  3e:	40f2                	c.lwsp	ra,28(sp)
  40:	4462                	c.lwsp	s0,24(sp)
  42:	4501                	c.li	a0,0
  44:	6105                	c.addi16sp	sp,32

00000046 <.LVL620>:
  46:	8082                	c.jr	ra

Disassembly of section .text.llc_llcp_ping_req_pdu_send:

00000000 <llc_llcp_ping_req_pdu_send>:
   0:	1101                	c.addi	sp,-32
   2:	47c9                	c.li	a5,18
   4:	006c                	c.addi4spn	a1,sp,12
   6:	4649                	c.li	a2,18
   8:	0ff57513          	andi	a0,a0,255

0000000c <.LVL622>:
   c:	ce06                	c.swsp	ra,28(sp)
   e:	00f10623          	sb	a5,12(sp)
  12:	00000097          	auipc	ra,0x0
  16:	000080e7          	jalr	ra,0(ra) # 12 <.LVL622+0x6>

0000001a <.LVL623>:
  1a:	40f2                	c.lwsp	ra,28(sp)
  1c:	6105                	c.addi16sp	sp,32
  1e:	8082                	c.jr	ra

Disassembly of section .text.llc_llcp_ping_rsp_pdu_send:

00000000 <llc_llcp_ping_rsp_pdu_send>:
   0:	1101                	c.addi	sp,-32
   2:	47cd                	c.li	a5,19
   4:	006c                	c.addi4spn	a1,sp,12
   6:	464d                	c.li	a2,19
   8:	0ff57513          	andi	a0,a0,255

0000000c <.LVL625>:
   c:	ce06                	c.swsp	ra,28(sp)
   e:	00f10623          	sb	a5,12(sp)
  12:	00000097          	auipc	ra,0x0
  16:	000080e7          	jalr	ra,0(ra) # 12 <.LVL625+0x6>

0000001a <.LVL626>:
  1a:	40f2                	c.lwsp	ra,28(sp)
  1c:	6105                	c.addi16sp	sp,32
  1e:	8082                	c.jr	ra

Disassembly of section .text.llcp_ping_req_handler:

00000000 <llcp_ping_req_handler>:
   0:	000007b7          	lui	a5,0x0
   4:	1141                	c.addi	sp,-16
   6:	00251713          	slli	a4,a0,0x2
   a:	00078793          	addi	a5,a5,0 # 0 <llcp_ping_req_handler>
   e:	c606                	c.swsp	ra,12(sp)
  10:	97ba                	c.add	a5,a4
  12:	439c                	c.lw	a5,0(a5)
  14:	0a57c783          	lbu	a5,165(a5)
  18:	8ba1                	c.andi	a5,8
  1a:	cb99                	c.beqz	a5,30 <.L365>
  1c:	03d00593          	addi	a1,zero,61

00000020 <.LVL628>:
  20:	00000097          	auipc	ra,0x0
  24:	000080e7          	jalr	ra,0(ra) # 20 <.LVL628>

00000028 <.L366>:
  28:	40b2                	c.lwsp	ra,12(sp)
  2a:	4501                	c.li	a0,0
  2c:	0141                	c.addi	sp,16
  2e:	8082                	c.jr	ra

00000030 <.L365>:
  30:	00000097          	auipc	ra,0x0
  34:	000080e7          	jalr	ra,0(ra) # 30 <.L365>

00000038 <.LVL631>:
  38:	bfc5                	c.j	28 <.L366>

Disassembly of section .text.llc_llcp_length_req_pdu_send:

00000000 <llc_llcp_length_req_pdu_send>:
   0:	000007b7          	lui	a5,0x0
   4:	1101                	c.addi	sp,-32
   6:	00251713          	slli	a4,a0,0x2
   a:	00078793          	addi	a5,a5,0 # 0 <llc_llcp_length_req_pdu_send>
   e:	ce06                	c.swsp	ra,28(sp)
  10:	97ba                	c.add	a5,a4
  12:	439c                	c.lw	a5,0(a5)

00000014 <.LVL633>:
  14:	4751                	c.li	a4,20
  16:	00e10223          	sb	a4,4(sp)
  1a:	0447d703          	lhu	a4,68(a5)
  1e:	004c                	c.addi4spn	a1,sp,4
  20:	4651                	c.li	a2,20
  22:	00e11323          	sh	a4,6(sp)
  26:	04c7d703          	lhu	a4,76(a5)
  2a:	0ff57513          	andi	a0,a0,255

0000002e <.LVL636>:
  2e:	00e11423          	sh	a4,8(sp)
  32:	0427d703          	lhu	a4,66(a5)
  36:	04a7d783          	lhu	a5,74(a5)

0000003a <.LVL638>:
  3a:	00e11523          	sh	a4,10(sp)
  3e:	00f11623          	sh	a5,12(sp)
  42:	00000097          	auipc	ra,0x0
  46:	000080e7          	jalr	ra,0(ra) # 42 <.LVL638+0x8>

0000004a <.LVL639>:
  4a:	40f2                	c.lwsp	ra,28(sp)
  4c:	6105                	c.addi16sp	sp,32
  4e:	8082                	c.jr	ra

Disassembly of section .text.llc_llcp_length_rsp_pdu_send:

00000000 <llc_llcp_length_rsp_pdu_send>:
   0:	000007b7          	lui	a5,0x0
   4:	1101                	c.addi	sp,-32
   6:	00251713          	slli	a4,a0,0x2
   a:	00078793          	addi	a5,a5,0 # 0 <llc_llcp_length_rsp_pdu_send>
   e:	ce06                	c.swsp	ra,28(sp)
  10:	97ba                	c.add	a5,a4
  12:	439c                	c.lw	a5,0(a5)

00000014 <.LVL641>:
  14:	4755                	c.li	a4,21
  16:	00e10223          	sb	a4,4(sp)
  1a:	0447d703          	lhu	a4,68(a5)
  1e:	004c                	c.addi4spn	a1,sp,4
  20:	4655                	c.li	a2,21
  22:	00e11323          	sh	a4,6(sp)
  26:	04c7d703          	lhu	a4,76(a5)
  2a:	0ff57513          	andi	a0,a0,255

0000002e <.LVL644>:
  2e:	00e11423          	sh	a4,8(sp)
  32:	0427d703          	lhu	a4,66(a5)
  36:	04a7d783          	lhu	a5,74(a5)

0000003a <.LVL646>:
  3a:	00e11523          	sh	a4,10(sp)
  3e:	00f11623          	sh	a5,12(sp)
  42:	00000097          	auipc	ra,0x0
  46:	000080e7          	jalr	ra,0(ra) # 42 <.LVL646+0x8>

0000004a <.LVL647>:
  4a:	40f2                	c.lwsp	ra,28(sp)
  4c:	6105                	c.addi16sp	sp,32
  4e:	8082                	c.jr	ra

Disassembly of section .text.llcp_length_req_handler:

00000000 <llcp_length_req_handler>:
   0:	000007b7          	lui	a5,0x0
   4:	1101                	c.addi	sp,-32
   6:	00251713          	slli	a4,a0,0x2
   a:	00078793          	addi	a5,a5,0 # 0 <llcp_length_req_handler>
   e:	ce06                	c.swsp	ra,28(sp)
  10:	cc22                	c.swsp	s0,24(sp)
  12:	ca26                	c.swsp	s1,20(sp)
  14:	c84a                	c.swsp	s2,16(sp)
  16:	c64e                	c.swsp	s3,12(sp)
  18:	c452                	c.swsp	s4,8(sp)
  1a:	c256                	c.swsp	s5,4(sp)
  1c:	c05a                	c.swsp	s6,0(sp)
  1e:	97ba                	c.add	a5,a4
  20:	4380                	c.lw	s0,0(a5)

00000022 <.LVL649>:
  22:	05344783          	lbu	a5,83(s0)
  26:	0017e793          	ori	a5,a5,1
  2a:	04f409a3          	sb	a5,83(s0)
  2e:	0a544783          	lbu	a5,165(s0)
  32:	8ba1                	c.andi	a5,8
  34:	c395                	c.beqz	a5,58 <.L373>
  36:	03d00593          	addi	a1,zero,61

0000003a <.LVL650>:
  3a:	00000097          	auipc	ra,0x0
  3e:	000080e7          	jalr	ra,0(ra) # 3a <.LVL650>

00000042 <.L374>:
  42:	40f2                	c.lwsp	ra,28(sp)
  44:	4462                	c.lwsp	s0,24(sp)

00000046 <.LVL652>:
  46:	44d2                	c.lwsp	s1,20(sp)
  48:	4942                	c.lwsp	s2,16(sp)
  4a:	49b2                	c.lwsp	s3,12(sp)
  4c:	4a22                	c.lwsp	s4,8(sp)
  4e:	4a92                	c.lwsp	s5,4(sp)
  50:	4b02                	c.lwsp	s6,0(sp)
  52:	4501                	c.li	a0,0
  54:	6105                	c.addi16sp	sp,32
  56:	8082                	c.jr	ra

00000058 <.L373>:
  58:	0066d703          	lhu	a4,6(a3)

0000005c <.LBB701>:
  5c:	04445783          	lhu	a5,68(s0)
  60:	8aaa                	c.mv	s5,a0

00000062 <.LBB704>:
  62:	00f77363          	bgeu	a4,a5,68 <.L375>
  66:	87ba                	c.mv	a5,a4

00000068 <.L375>:
  68:	01079a13          	slli	s4,a5,0x10

0000006c <.LBB705>:
  6c:	04c45983          	lhu	s3,76(s0)

00000070 <.LBE705>:
  70:	0086d783          	lhu	a5,8(a3)
  74:	010a5a13          	srli	s4,s4,0x10

00000078 <.LBB708>:
  78:	0137f363          	bgeu	a5,s3,7e <.L376>
  7c:	89be                	c.mv	s3,a5

0000007e <.L376>:
  7e:	0026d783          	lhu	a5,2(a3)

00000082 <.LBB709>:
  82:	04245903          	lhu	s2,66(s0)

00000086 <.LBE709>:
  86:	09c2                	c.slli	s3,0x10
  88:	0109d993          	srli	s3,s3,0x10

0000008c <.LBB712>:
  8c:	0127f363          	bgeu	a5,s2,92 <.L377>
  90:	893e                	c.mv	s2,a5

00000092 <.L377>:
  92:	0046d783          	lhu	a5,4(a3)

00000096 <.LBB713>:
  96:	04a45483          	lhu	s1,74(s0)

0000009a <.LBE713>:
  9a:	0942                	c.slli	s2,0x10
  9c:	01095913          	srli	s2,s2,0x10

000000a0 <.LBB716>:
  a0:	0097f363          	bgeu	a5,s1,a6 <.L378>
  a4:	84be                	c.mv	s1,a5

000000a6 <.L378>:
  a6:	04c2                	c.slli	s1,0x10
  a8:	4808                	c.lw	a0,16(s0)

000000aa <.LVL658>:
  aa:	80c1                	c.srli	s1,0x10
  ac:	864e                	c.mv	a2,s3

000000ae <.LVL660>:
  ae:	85a6                	c.mv	a1,s1

000000b0 <.LVL661>:
  b0:	00000097          	auipc	ra,0x0
  b4:	000080e7          	jalr	ra,0(ra) # b0 <.LVL661>

000000b8 <.LVL662>:
  b8:	04845783          	lhu	a5,72(s0)
  bc:	01479e63          	bne	a5,s4,d8 <.L379>
  c0:	05045783          	lhu	a5,80(s0)
  c4:	01379a63          	bne	a5,s3,d8 <.L379>
  c8:	04645783          	lhu	a5,70(s0)
  cc:	01279663          	bne	a5,s2,d8 <.L379>
  d0:	04e45783          	lhu	a5,78(s0)
  d4:	02978c63          	beq	a5,s1,10c <.L380>

000000d8 <.L379>:
  d8:	30002b73          	csrrs	s6,mstatus,zero

000000dc <.LBB719>:
  dc:	300477f3          	csrrci	a5,mstatus,8

000000e0 <.LBE719>:
  e0:	4808                	c.lw	a0,16(s0)
  e2:	05441423          	sh	s4,72(s0)
  e6:	05341823          	sh	s3,80(s0)
  ea:	05241323          	sh	s2,70(s0)
  ee:	04941723          	sh	s1,78(s0)
  f2:	864a                	c.mv	a2,s2
  f4:	85a6                	c.mv	a1,s1
  f6:	00000097          	auipc	ra,0x0
  fa:	000080e7          	jalr	ra,0(ra) # f6 <.LBE719+0x16>

000000fe <.LVL665>:
  fe:	300b1073          	csrrw	zero,mstatus,s6

00000102 <.LBE717>:
 102:	05344783          	lbu	a5,83(s0)
 106:	9bf5                	c.andi	a5,-3
 108:	04f409a3          	sb	a5,83(s0)

0000010c <.L380>:
 10c:	8556                	c.mv	a0,s5
 10e:	00000097          	auipc	ra,0x0
 112:	000080e7          	jalr	ra,0(ra) # 10e <.L380+0x2>

00000116 <.LVL667>:
 116:	05344783          	lbu	a5,83(s0)
 11a:	4519                	c.li	a0,6
 11c:	9bf9                	c.andi	a5,-2
 11e:	04f409a3          	sb	a5,83(s0)
 122:	00000097          	auipc	ra,0x0
 126:	000080e7          	jalr	ra,0(ra) # 122 <.LVL667+0xc>

0000012a <.LVL668>:
 12a:	dd01                	c.beqz	a0,42 <.L374>
 12c:	05344783          	lbu	a5,83(s0)
 130:	8b89                	c.andi	a5,2
 132:	fb81                	c.bnez	a5,42 <.L374>

00000134 <.LBB720>:
 134:	6505                	c.lui	a0,0x1
 136:	46b1                	c.li	a3,12
 138:	03e00613          	addi	a2,zero,62
 13c:	85d6                	c.mv	a1,s5
 13e:	80450513          	addi	a0,a0,-2044 # 804 <.LASF837>
 142:	00000097          	auipc	ra,0x0
 146:	000080e7          	jalr	ra,0(ra) # 142 <.LBB720+0xe>

0000014a <.LVL669>:
 14a:	471d                	c.li	a4,7
 14c:	00e50023          	sb	a4,0(a0)

00000150 <.LBB721>:
 150:	01551123          	sh	s5,2(a0)
 154:	04845703          	lhu	a4,72(s0)
 158:	00e51423          	sh	a4,8(a0)
 15c:	05045703          	lhu	a4,80(s0)
 160:	00e51523          	sh	a4,10(a0)
 164:	04645703          	lhu	a4,70(s0)
 168:	00e51223          	sh	a4,4(a0)
 16c:	04e45703          	lhu	a4,78(s0)
 170:	00e51323          	sh	a4,6(a0)
 174:	00000097          	auipc	ra,0x0
 178:	000080e7          	jalr	ra,0(ra) # 174 <.LBB721+0x24>

0000017c <.LVL671>:
 17c:	05344783          	lbu	a5,83(s0)
 180:	0027e793          	ori	a5,a5,2
 184:	04f409a3          	sb	a5,83(s0)
 188:	bd6d                	c.j	42 <.L374>

Disassembly of section .text.llc_llcp_recv_handler:

00000000 <llc_llcp_recv_handler>:
   0:	1101                	c.addi	sp,-32
   2:	cc22                	c.swsp	s0,24(sp)
   4:	ca26                	c.swsp	s1,20(sp)
   6:	c84a                	c.swsp	s2,16(sp)
   8:	00d034b3          	sltu	s1,zero,a3
   c:	ce06                	c.swsp	ra,28(sp)
   e:	892a                	c.mv	s2,a0
  10:	c62e                	c.swsp	a1,12(sp)
  12:	8432                	c.mv	s0,a2
  14:	c436                	c.swsp	a3,8(sp)
  16:	00000097          	auipc	ra,0x0
  1a:	000080e7          	jalr	ra,0(ra) # 16 <llc_llcp_recv_handler+0x16>

0000001e <.LVL673>:
  1e:	07f57713          	andi	a4,a0,127
  22:	07f00793          	addi	a5,zero,127
  26:	0486                	c.slli	s1,0x1

00000028 <.LBB723>:
  28:	08f70563          	beq	a4,a5,b2 <.L385>

0000002c <.LBB725>:
  2c:	893d                	c.andi	a0,15

0000002e <.LVL676>:
  2e:	47bd                	c.li	a5,15
  30:	4622                	c.lwsp	a2,8(sp)
  32:	45b2                	c.lwsp	a1,12(sp)
  34:	00f51963          	bne	a0,a5,46 <.L388>
  38:	00044783          	lbu	a5,0(s0)
  3c:	4709                	c.li	a4,2
  3e:	0fb7f793          	andi	a5,a5,251
  42:	06e79863          	bne	a5,a4,b2 <.L385>

00000046 <.L388>:
  46:	00895513          	srli	a0,s2,0x8

0000004a <.LVL677>:
  4a:	000007b7          	lui	a5,0x0
  4e:	00251713          	slli	a4,a0,0x2
  52:	00078793          	addi	a5,a5,0 # 0 <llc_llcp_recv_handler>
  56:	97ba                	c.add	a5,a4
  58:	439c                	c.lw	a5,0(a5)
  5a:	05c7d783          	lhu	a5,92(a5)
  5e:	8ba1                	c.andi	a5,8
  60:	eba9                	c.bnez	a5,b2 <.L385>
  62:	e98d                	c.bnez	a1,94 <.L389>
  64:	00044703          	lbu	a4,0(s0)
  68:	000007b7          	lui	a5,0x0
  6c:	00078793          	addi	a5,a5,0 # 0 <llc_llcp_recv_handler>
  70:	070e                	c.slli	a4,0x3
  72:	c611                	c.beqz	a2,7e <.L390>
  74:	00e786b3          	add	a3,a5,a4
  78:	0046c683          	lbu	a3,4(a3)
  7c:	ca9d                	c.beqz	a3,b2 <.L385>

0000007e <.L390>:
  7e:	97ba                	c.add	a5,a4
  80:	86a2                	c.mv	a3,s0

00000082 <.LBE727>:
  82:	4462                	c.lwsp	s0,24(sp)

00000084 <.LVL678>:
  84:	40f2                	c.lwsp	ra,28(sp)
  86:	44d2                	c.lwsp	s1,20(sp)

00000088 <.LBB728>:
  88:	0007a303          	lw	t1,0(a5)
  8c:	85ca                	c.mv	a1,s2

0000008e <.LBE728>:
  8e:	4942                	c.lwsp	s2,16(sp)
  90:	6105                	c.addi16sp	sp,32

00000092 <.LBB729>:
  92:	8302                	c.jr	t1

00000094 <.L389>:
  94:	47e5                	c.li	a5,25
  96:	00f59e63          	bne	a1,a5,b2 <.L385>
  9a:	ee01                	c.bnez	a2,b2 <.L385>
  9c:	00044583          	lbu	a1,0(s0)

000000a0 <.LBE729>:
  a0:	4462                	c.lwsp	s0,24(sp)

000000a2 <.LVL682>:
  a2:	40f2                	c.lwsp	ra,28(sp)
  a4:	44d2                	c.lwsp	s1,20(sp)

000000a6 <.LVL683>:
  a6:	4942                	c.lwsp	s2,16(sp)
  a8:	6105                	c.addi16sp	sp,32

000000aa <.LBB730>:
  aa:	00000317          	auipc	t1,0x0
  ae:	00030067          	jalr	zero,0(t1) # aa <.LBB730>

000000b2 <.L385>:
  b2:	40f2                	c.lwsp	ra,28(sp)
  b4:	4462                	c.lwsp	s0,24(sp)

000000b6 <.LVL686>:
  b6:	8526                	c.mv	a0,s1
  b8:	4942                	c.lwsp	s2,16(sp)
  ba:	44d2                	c.lwsp	s1,20(sp)

000000bc <.LVL687>:
  bc:	6105                	c.addi16sp	sp,32
  be:	8082                	c.jr	ra

Disassembly of section .text.llc_llcp_get_autorize:

00000000 <llc_llcp_get_autorize>:
   0:	47d5                	c.li	a5,21
   2:	00a7ec63          	bltu	a5,a0,1a <.L401>
   6:	00351793          	slli	a5,a0,0x3
   a:	00000537          	lui	a0,0x0

0000000e <.LVL689>:
   e:	00050513          	addi	a0,a0,0 # 0 <llc_llcp_get_autorize>
  12:	953e                	c.add	a0,a5
  14:	00554503          	lbu	a0,5(a0)

00000018 <.LVL690>:
  18:	8082                	c.jr	ra

0000001a <.L401>:
  1a:	4501                	c.li	a0,0

0000001c <.LVL692>:
  1c:	8082                	c.jr	ra

llc_task.o:     file format elf32-littleriscv


Disassembly of section .text.llc_dft_handler:

00000000 <llc_dft_handler>:
   0:	4501                	c.li	a0,0

00000002 <.LVL1>:
   2:	8082                	c.jr	ra

Disassembly of section .text.llm_enc_ind_handler:

00000000 <llm_enc_ind_handler>:
   0:	1101                	c.addi	sp,-32
   2:	8532                	c.mv	a0,a2

00000004 <.LVL3>:
   4:	ca26                	c.swsp	s1,20(sp)
   6:	c84a                	c.swsp	s2,16(sp)
   8:	ce06                	c.swsp	ra,28(sp)
   a:	cc22                	c.swsp	s0,24(sp)
   c:	c64e                	c.swsp	s3,12(sp)
   e:	c452                	c.swsp	s4,8(sp)
  10:	892e                	c.mv	s2,a1
  12:	84b2                	c.mv	s1,a2
  14:	00000097          	auipc	ra,0x0
  18:	000080e7          	jalr	ra,0(ra) # 14 <.LVL3+0x10>

0000001c <.LBB151>:
  1c:	00f57713          	andi	a4,a0,15
  20:	47bd                	c.li	a5,15
  22:	0ef70c63          	beq	a4,a5,11a <.L4>
  26:	0084d413          	srli	s0,s1,0x8
  2a:	000007b7          	lui	a5,0x0
  2e:	00241713          	slli	a4,s0,0x2
  32:	00078793          	addi	a5,a5,0 # 0 <llm_enc_ind_handler>
  36:	97ba                	c.add	a5,a4
  38:	0007a983          	lw	s3,0(a5)
  3c:	47cd                	c.li	a5,19
  3e:	8a2a                	c.mv	s4,a0
  40:	0a39c703          	lbu	a4,163(s3)
  44:	06f70c63          	beq	a4,a5,bc <.L5>

00000048 <.L8>:
  48:	0a49c703          	lbu	a4,164(s3)
  4c:	47b9                	c.li	a5,14
  4e:	00f71a63          	bne	a4,a5,62 <.L7>
  52:	8522                	c.mv	a0,s0
  54:	00000097          	auipc	ra,0x0
  58:	000080e7          	jalr	ra,0(ra) # 54 <.L8+0xc>

0000005c <.LVL6>:
  5c:	4791                	c.li	a5,4
  5e:	06f50763          	beq	a0,a5,cc <.L9>

00000062 <.L7>:
  62:	8522                	c.mv	a0,s0
  64:	00000097          	auipc	ra,0x0
  68:	000080e7          	jalr	ra,0(ra) # 64 <.L7+0x2>

0000006c <.LVL7>:
  6c:	4791                	c.li	a5,4
  6e:	08f51263          	bne	a0,a5,f2 <.L10>

00000072 <.LBB153>:
  72:	002a7793          	andi	a5,s4,2
  76:	cfb5                	c.beqz	a5,f2 <.L10>
  78:	0a49c703          	lbu	a4,164(s3)
  7c:	47a9                	c.li	a5,10
  7e:	06f71a63          	bne	a4,a5,f2 <.L10>

00000082 <.L13>:
  82:	05c00513          	addi	a0,zero,92
  86:	02a40533          	mul	a0,s0,a0
  8a:	280087b7          	lui	a5,0x28008
  8e:	0b478793          	addi	a5,a5,180 # 280080b4 <.LASF883+0x28003673>

00000092 <.LBE155>:
  92:	0ff00613          	addi	a2,zero,255
  96:	953e                	c.add	a0,a5

00000098 <.LBB159>:
  98:	47bd                	c.li	a5,15

0000009a <.L11>:
  9a:	00f906b3          	add	a3,s2,a5
  9e:	0006c703          	lbu	a4,0(a3)
  a2:	0016c683          	lbu	a3,1(a3)
  a6:	17f9                	c.addi	a5,-2

000000a8 <.LVL10>:
  a8:	0722                	c.slli	a4,0x8
  aa:	8f55                	c.or	a4,a3

000000ac <.LBB160>:
  ac:	00e51023          	sh	a4,0(a0)

000000b0 <.LBE160>:
  b0:	0ff7f793          	andi	a5,a5,255

000000b4 <.LVL13>:
  b4:	0509                	c.addi	a0,2
  b6:	fec792e3          	bne	a5,a2,9a <.L11>
  ba:	a01d                	c.j	e0 <.L22>

000000bc <.L5>:
  bc:	8522                	c.mv	a0,s0

000000be <.LVL15>:
  be:	00000097          	auipc	ra,0x0
  c2:	000080e7          	jalr	ra,0(ra) # be <.LVL15>

000000c6 <.LVL16>:
  c6:	478d                	c.li	a5,3
  c8:	f8f510e3          	bne	a0,a5,48 <.L8>

000000cc <.L9>:
  cc:	000007b7          	lui	a5,0x0
  d0:	0007a783          	lw	a5,0(a5) # 0 <llm_enc_ind_handler>
  d4:	4641                	c.li	a2,16
  d6:	00190593          	addi	a1,s2,1
  da:	09198513          	addi	a0,s3,145
  de:	9782                	c.jalr	a5

000000e0 <.L22>:
  e0:	8626                	c.mv	a2,s1
  e2:	85a6                	c.mv	a1,s1
  e4:	10600513          	addi	a0,zero,262
  e8:	00000097          	auipc	ra,0x0
  ec:	000080e7          	jalr	ra,0(ra) # e8 <.L22+0x8>

000000f0 <.LVL18>:
  f0:	a02d                	c.j	11a <.L4>

000000f2 <.L10>:
  f2:	8522                	c.mv	a0,s0
  f4:	00000097          	auipc	ra,0x0
  f8:	000080e7          	jalr	ra,0(ra) # f4 <.L10+0x2>

000000fc <.LVL19>:
  fc:	478d                	c.li	a5,3
  fe:	00f51e63          	bne	a0,a5,11a <.L4>

00000102 <.LBB161>:
 102:	001a7a13          	andi	s4,s4,1
 106:	000a0a63          	beq	s4,zero,11a <.L4>
 10a:	0a39c783          	lbu	a5,163(s3)
 10e:	4705                	c.li	a4,1
 110:	17c9                	c.addi	a5,-14
 112:	0ff7f793          	andi	a5,a5,255
 116:	f6f776e3          	bgeu	a4,a5,82 <.L13>

0000011a <.L4>:
 11a:	40f2                	c.lwsp	ra,28(sp)
 11c:	4462                	c.lwsp	s0,24(sp)
 11e:	44d2                	c.lwsp	s1,20(sp)
 120:	4942                	c.lwsp	s2,16(sp)

00000122 <.LVL21>:
 122:	49b2                	c.lwsp	s3,12(sp)
 124:	4a22                	c.lwsp	s4,8(sp)
 126:	4501                	c.li	a0,0
 128:	6105                	c.addi16sp	sp,32
 12a:	8082                	c.jr	ra

Disassembly of section .text.llc_llcp_recv_ind_handler:

00000000 <llc_llcp_recv_ind_handler>:
   0:	8532                	c.mv	a0,a2

00000002 <.LVL23>:
   2:	00258613          	addi	a2,a1,2

00000006 <.LVL24>:
   6:	0005c583          	lbu	a1,0(a1)

0000000a <.LVL25>:
   a:	4681                	c.li	a3,0

0000000c <.LVL26>:
   c:	00000317          	auipc	t1,0x0
  10:	00030067          	jalr	zero,0(t1) # c <.LVL26>

Disassembly of section .text.llc_chmap_update_req_ind_handler:

00000000 <llc_chmap_update_req_ind_handler>:
   0:	1101                	c.addi	sp,-32
   2:	8532                	c.mv	a0,a2

00000004 <.LVL29>:
   4:	c84a                	c.swsp	s2,16(sp)
   6:	ce06                	c.swsp	ra,28(sp)
   8:	cc22                	c.swsp	s0,24(sp)
   a:	ca26                	c.swsp	s1,20(sp)
   c:	c64e                	c.swsp	s3,12(sp)
   e:	8932                	c.mv	s2,a2
  10:	00000097          	auipc	ra,0x0
  14:	000080e7          	jalr	ra,0(ra) # 10 <.LVL29+0xc>

00000018 <.LBB163>:
  18:	00f57713          	andi	a4,a0,15
  1c:	47bd                	c.li	a5,15
  1e:	00f71a63          	bne	a4,a5,32 <.L25>

00000022 <.L33>:
  22:	4501                	c.li	a0,0

00000024 <.L24>:
  24:	40f2                	c.lwsp	ra,28(sp)
  26:	4462                	c.lwsp	s0,24(sp)
  28:	44d2                	c.lwsp	s1,20(sp)
  2a:	4942                	c.lwsp	s2,16(sp)
  2c:	49b2                	c.lwsp	s3,12(sp)
  2e:	6105                	c.addi16sp	sp,32
  30:	8082                	c.jr	ra

00000032 <.L25>:
  32:	00457793          	andi	a5,a0,4
  36:	842a                	c.mv	s0,a0

00000038 <.LBB165>:
  38:	f7ed                	c.bnez	a5,22 <.L33>

0000003a <.LBB167>:
  3a:	00157793          	andi	a5,a0,1
  3e:	4509                	c.li	a0,2

00000040 <.LVL35>:
  40:	f3f5                	c.bnez	a5,24 <.L24>
  42:	00895493          	srli	s1,s2,0x8

00000046 <.LBB169>:
  46:	000007b7          	lui	a5,0x0
  4a:	00249713          	slli	a4,s1,0x2
  4e:	00078793          	addi	a5,a5,0 # 0 <llc_chmap_update_req_ind_handler>
  52:	97ba                	c.add	a5,a4
  54:	8526                	c.mv	a0,s1
  56:	0007a983          	lw	s3,0(a5)
  5a:	00000097          	auipc	ra,0x0
  5e:	000080e7          	jalr	ra,0(ra) # 5a <.LBB169+0x14>

00000062 <.LVL37>:
  62:	000007b7          	lui	a5,0x0
  66:	0007a783          	lw	a5,0(a5) # 0 <llc_chmap_update_req_ind_handler>
  6a:	4615                	c.li	a2,5
  6c:	06398593          	addi	a1,s3,99
  70:	9782                	c.jalr	a5

00000072 <.LVL38>:
  72:	d945                	c.beqz	a0,22 <.L33>

00000074 <.LBB170>:
  74:	00146593          	ori	a1,s0,1
  78:	854a                	c.mv	a0,s2
  7a:	0ff5f593          	andi	a1,a1,255
  7e:	00000097          	auipc	ra,0x0
  82:	000080e7          	jalr	ra,0(ra) # 7e <.LBB170+0xa>

00000086 <.LBE170>:
  86:	4799                	c.li	a5,6
  88:	0af981a3          	sb	a5,163(s3)
  8c:	8526                	c.mv	a0,s1
  8e:	00000097          	auipc	ra,0x0
  92:	000080e7          	jalr	ra,0(ra) # 8e <.LBE170+0x8>

00000096 <.LVL41>:
  96:	b771                	c.j	22 <.L33>

Disassembly of section .text.llc_auth_payl_real_to_ind_handler:

00000000 <llc_auth_payl_real_to_ind_handler>:
   0:	1141                	c.addi	sp,-16
   2:	8532                	c.mv	a0,a2

00000004 <.LVL43>:
   4:	c226                	c.swsp	s1,4(sp)
   6:	c606                	c.swsp	ra,12(sp)
   8:	c422                	c.swsp	s0,8(sp)
   a:	c04a                	c.swsp	s2,0(sp)
   c:	84b2                	c.mv	s1,a2
   e:	00000097          	auipc	ra,0x0
  12:	000080e7          	jalr	ra,0(ra) # e <.LVL43+0xa>

00000016 <.LBB172>:
  16:	893d                	c.andi	a0,15

00000018 <.LVL45>:
  18:	47bd                	c.li	a5,15
  1a:	06f50363          	beq	a0,a5,80 <.L35>
  1e:	0084d913          	srli	s2,s1,0x8

00000022 <.LBB174>:
  22:	00000437          	lui	s0,0x0
  26:	00291793          	slli	a5,s2,0x2
  2a:	00040413          	addi	s0,s0,0 # 0 <llc_auth_payl_real_to_ind_handler>
  2e:	943e                	c.add	s0,a5
  30:	401c                	c.lw	a5,0(s0)
  32:	85a6                	c.mv	a1,s1
  34:	10300513          	addi	a0,zero,259
  38:	0587d603          	lhu	a2,88(a5)
  3c:	05a7d783          	lhu	a5,90(a5)
  40:	8e1d                	c.sub	a2,a5
  42:	00000097          	auipc	ra,0x0
  46:	000080e7          	jalr	ra,0(ra) # 42 <.LBB174+0x20>

0000004a <.LVL46>:
  4a:	401c                	c.lw	a5,0(s0)
  4c:	85a6                	c.mv	a1,s1
  4e:	10400513          	addi	a0,zero,260
  52:	0587d603          	lhu	a2,88(a5)
  56:	00000097          	auipc	ra,0x0
  5a:	000080e7          	jalr	ra,0(ra) # 56 <.LVL46+0xc>

0000005e <.LVL47>:
  5e:	6505                	c.lui	a0,0x1
  60:	4689                	c.li	a3,2
  62:	05700613          	addi	a2,zero,87
  66:	85ca                	c.mv	a1,s2
  68:	80350513          	addi	a0,a0,-2045 # 803 <.LASF532>
  6c:	00000097          	auipc	ra,0x0
  70:	000080e7          	jalr	ra,0(ra) # 6c <.LVL47+0xe>

00000074 <.LBB175>:
  74:	01251023          	sh	s2,0(a0)
  78:	00000097          	auipc	ra,0x0
  7c:	000080e7          	jalr	ra,0(ra) # 78 <.LBB175+0x4>

00000080 <.L35>:
  80:	40b2                	c.lwsp	ra,12(sp)
  82:	4422                	c.lwsp	s0,8(sp)
  84:	4492                	c.lwsp	s1,4(sp)
  86:	4902                	c.lwsp	s2,0(sp)
  88:	4501                	c.li	a0,0
  8a:	0141                	c.addi	sp,16
  8c:	8082                	c.jr	ra

Disassembly of section .text.llc_con_upd_req_ind_handler:

00000000 <llc_con_upd_req_ind_handler>:
   0:	7179                	c.addi16sp	sp,-48
   2:	8532                	c.mv	a0,a2

00000004 <.LVL51>:
   4:	d422                	c.swsp	s0,40(sp)
   6:	ca56                	c.swsp	s5,20(sp)
   8:	d606                	c.swsp	ra,44(sp)
   a:	d226                	c.swsp	s1,36(sp)
   c:	d04a                	c.swsp	s2,32(sp)
   e:	ce4e                	c.swsp	s3,28(sp)
  10:	cc52                	c.swsp	s4,24(sp)
  12:	c85a                	c.swsp	s6,16(sp)
  14:	842e                	c.mv	s0,a1
  16:	8ab2                	c.mv	s5,a2
  18:	00000097          	auipc	ra,0x0
  1c:	000080e7          	jalr	ra,0(ra) # 18 <.LVL51+0x14>

00000020 <.LBB176>:
  20:	00f57713          	andi	a4,a0,15
  24:	47bd                	c.li	a5,15
  26:	00f71d63          	bne	a4,a5,40 <.L38>

0000002a <.L53>:
  2a:	4501                	c.li	a0,0

0000002c <.L37>:
  2c:	50b2                	c.lwsp	ra,44(sp)
  2e:	5422                	c.lwsp	s0,40(sp)

00000030 <.LVL55>:
  30:	5492                	c.lwsp	s1,36(sp)
  32:	5902                	c.lwsp	s2,32(sp)
  34:	49f2                	c.lwsp	s3,28(sp)
  36:	4a62                	c.lwsp	s4,24(sp)
  38:	4ad2                	c.lwsp	s5,20(sp)
  3a:	4b42                	c.lwsp	s6,16(sp)
  3c:	6145                	c.addi16sp	sp,48
  3e:	8082                	c.jr	ra

00000040 <.L38>:
  40:	00157793          	andi	a5,a0,1
  44:	84aa                	c.mv	s1,a0
  46:	008ad993          	srli	s3,s5,0x8

0000004a <.LBB178>:
  4a:	cf81                	c.beqz	a5,62 <.L40>

0000004c <.LBB180>:
  4c:	00000737          	lui	a4,0x0
  50:	00299793          	slli	a5,s3,0x2
  54:	00070713          	addi	a4,a4,0 # 0 <llc_con_upd_req_ind_handler>
  58:	97ba                	c.add	a5,a4
  5a:	439c                	c.lw	a5,0(a5)

0000005c <.LBE180>:
  5c:	4509                	c.li	a0,2

0000005e <.LVL59>:
  5e:	439c                	c.lw	a5,0(a5)
  60:	d7f1                	c.beqz	a5,2c <.L37>

00000062 <.L40>:
  62:	0024f793          	andi	a5,s1,2
  66:	cf99                	c.beqz	a5,84 <.L41>
  68:	00000737          	lui	a4,0x0
  6c:	00070713          	addi	a4,a4,0 # 0 <llc_con_upd_req_ind_handler>
  70:	00299793          	slli	a5,s3,0x2
  74:	97ba                	c.add	a5,a4
  76:	439c                	c.lw	a5,0(a5)
  78:	4509                	c.li	a0,2
  7a:	0a47c703          	lbu	a4,164(a5)
  7e:	4791                	c.li	a5,4
  80:	faf706e3          	beq	a4,a5,2c <.L37>

00000084 <.L41>:
  84:	0044f793          	andi	a5,s1,4
  88:	4509                	c.li	a0,2
  8a:	f3cd                	c.bnez	a5,2c <.L37>

0000008c <.LBB186>:
  8c:	00000937          	lui	s2,0x0
  90:	00090793          	addi	a5,s2,0 # 0 <llc_con_upd_req_ind_handler>
  94:	00299b13          	slli	s6,s3,0x2
  98:	97da                	c.add	a5,s6
  9a:	0007aa03          	lw	s4,0(a5)
  9e:	00044783          	lbu	a5,0(s0)
  a2:	4711                	c.li	a4,4
  a4:	00090913          	addi	s2,s2,0

000000a8 <.LBE186>:
  a8:	4501                	c.li	a0,0

000000aa <.LBB217>:
  aa:	f8f761e3          	bltu	a4,a5,2c <.L37>
  ae:	00000737          	lui	a4,0x0
  b2:	078a                	c.slli	a5,0x2
  b4:	00070713          	addi	a4,a4,0 # 0 <llc_con_upd_req_ind_handler>
  b8:	97ba                	c.add	a5,a4
  ba:	439c                	c.lw	a5,0(a5)
  bc:	8782                	c.jr	a5

000000be <.L46>:
  be:	054a5783          	lhu	a5,84(s4)
  c2:	00f41423          	sh	a5,8(s0)

000000c6 <.L47>:
  c6:	00040923          	sb	zero,18(s0)
  ca:	0a6a4783          	lbu	a5,166(s4)
  ce:	c3d9                	c.beqz	a5,154 <.L48>
  d0:	05ca5783          	lhu	a5,92(s4)
  d4:	8b85                	c.andi	a5,1
  d6:	e7ad                	c.bnez	a5,140 <.L49>

000000d8 <.L52>:
  d8:	00044703          	lbu	a4,0(s0)
  dc:	4785                	c.li	a5,1
  de:	02f70063          	beq	a4,a5,fe <.L51>
  e2:	05ca5783          	lhu	a5,92(s4)
  e6:	010a2583          	lw	a1,16(s4)
  ea:	8622                	c.mv	a2,s0
  ec:	0407e793          	ori	a5,a5,64
  f0:	04fa1e23          	sh	a5,92(s4)
  f4:	854e                	c.mv	a0,s3
  f6:	00000097          	auipc	ra,0x0
  fa:	000080e7          	jalr	ra,0(ra) # f6 <.L52+0x1e>

000000fe <.L51>:
  fe:	85a2                	c.mv	a1,s0
 100:	854e                	c.mv	a0,s3
 102:	00000097          	auipc	ra,0x0
 106:	000080e7          	jalr	ra,0(ra) # 102 <.L51+0x4>

0000010a <.LBB187>:
 10a:	0014e593          	ori	a1,s1,1
 10e:	0ff5f593          	andi	a1,a1,255
 112:	8556                	c.mv	a0,s5
 114:	00000097          	auipc	ra,0x0
 118:	000080e7          	jalr	ra,0(ra) # 114 <.LBB187+0xa>

0000011c <.LBE187>:
 11c:	479d                	c.li	a5,7
 11e:	6605                	c.lui	a2,0x1
 120:	0afa01a3          	sb	a5,163(s4)
 124:	fa060613          	addi	a2,a2,-96 # fa0 <.LLST95+0x9>
 128:	85d6                	c.mv	a1,s5
 12a:	10200513          	addi	a0,zero,258
 12e:	00000097          	auipc	ra,0x0
 132:	000080e7          	jalr	ra,0(ra) # 12e <.LBE187+0x12>

00000136 <.L68>:
 136:	995a                	c.add	s2,s6
 138:	00092783          	lw	a5,0(s2)

0000013c <.LVL67>:
 13c:	c380                	c.sw	s0,0(a5)
 13e:	a0f5                	c.j	22a <.L69>

00000140 <.L49>:
 140:	069a4783          	lbu	a5,105(s4)
 144:	8b89                	c.andi	a5,2
 146:	fbc9                	c.bnez	a5,d8 <.L52>
 148:	4515                	c.li	a0,5
 14a:	00000097          	auipc	ra,0x0
 14e:	000080e7          	jalr	ra,0(ra) # 14a <.L49+0xa>

00000152 <.LVL69>:
 152:	d159                	c.beqz	a0,d8 <.L52>

00000154 <.L48>:
 154:	00245783          	lhu	a5,2(s0)
 158:	854e                	c.mv	a0,s3
 15a:	00f41723          	sh	a5,14(s0)
 15e:	00445783          	lhu	a5,4(s0)
 162:	00f41823          	sh	a5,16(s0)
 166:	00000097          	auipc	ra,0x0
 16a:	000080e7          	jalr	ra,0(ra) # 166 <.L48+0x12>

0000016e <.LVL70>:
 16e:	478d                	c.li	a5,3
 170:	eaf51de3          	bne	a0,a5,2a <.L53>

00000174 <.LBB200>:
 174:	010a2503          	lw	a0,16(s4)
 178:	0050                	c.addi4spn	a2,sp,4
 17a:	85a2                	c.mv	a1,s0
 17c:	00000097          	auipc	ra,0x0
 180:	000080e7          	jalr	ra,0(ra) # 17c <.LBB200+0x8>

00000184 <.L70>:
 184:	00845783          	lhu	a5,8(s0)
 188:	004c                	c.addi4spn	a1,sp,4
 18a:	854e                	c.mv	a0,s3
 18c:	04fa1b23          	sh	a5,86(s4)
 190:	00000097          	auipc	ra,0x0
 194:	000080e7          	jalr	ra,0(ra) # 190 <.L70+0xc>

00000198 <.LVL72>:
 198:	00815783          	lhu	a5,8(sp)

0000019c <.LBB194>:
 19c:	0014e593          	ori	a1,s1,1
 1a0:	0ff5f593          	andi	a1,a1,255

000001a4 <.LBE194>:
 1a4:	00f41723          	sh	a5,14(s0)
 1a8:	00a15783          	lhu	a5,10(sp)

000001ac <.LBB198>:
 1ac:	8556                	c.mv	a0,s5

000001ae <.LBE198>:
 1ae:	00f41323          	sh	a5,6(s0)

000001b2 <.LBB199>:
 1b2:	00000097          	auipc	ra,0x0
 1b6:	000080e7          	jalr	ra,0(ra) # 1b2 <.LBB199>

000001ba <.LBE199>:
 1ba:	47a5                	c.li	a5,9
 1bc:	0afa01a3          	sb	a5,163(s4)
 1c0:	bf9d                	c.j	136 <.L68>

000001c2 <.L44>:
 1c2:	6505                	c.lui	a0,0x1
 1c4:	85ce                	c.mv	a1,s3
 1c6:	46b1                	c.li	a3,12
 1c8:	03e00613          	addi	a2,zero,62
 1cc:	80450513          	addi	a0,a0,-2044 # 804 <.LASF532+0x1>
 1d0:	00000097          	auipc	ra,0x0
 1d4:	000080e7          	jalr	ra,0(ra) # 1d0 <.L44+0xe>

000001d8 <.LVL76>:
 1d8:	4719                	c.li	a4,6
 1da:	00e50023          	sb	a4,0(a0)

000001de <.LBB213>:
 1de:	01351123          	sh	s3,2(a0)
 1e2:	00e45703          	lhu	a4,14(s0)

000001e6 <.LBB203>:
 1e6:	995a                	c.add	s2,s6

000001e8 <.LBE203>:
 1e8:	00e51223          	sh	a4,4(a0)
 1ec:	01045703          	lhu	a4,16(s0)
 1f0:	00e51323          	sh	a4,6(a0)
 1f4:	00645703          	lhu	a4,6(s0)
 1f8:	00e51423          	sh	a4,8(a0)
 1fc:	00845703          	lhu	a4,8(s0)
 200:	00e51523          	sh	a4,10(a0)
 204:	00000097          	auipc	ra,0x0
 208:	000080e7          	jalr	ra,0(ra) # 204 <.LBE203+0x1c>

0000020c <.LBB207>:
 20c:	00092783          	lw	a5,0(s2)

