	.file	"system_bl602.c"
	.option nopic
	.attribute arch, "rv32i2p0_m2p0_f2p0_c2p0"
	.attribute unaligned_access, 0
	.attribute stack_align, 16
	.text
.Ltext0:
	.cfi_sections	.debug_frame
	.section	.text.system_bor_init,"ax",@progbits
	.align	1
	.globl	system_bor_init
	.type	system_bor_init, @function
system_bor_init:
.LFB8:
	.file 1 "/home/ubuntu/dev/bl_iot_sdk/components/bl602/bl602_std/bl602_std/RISCV/Device/Bouffalo/BL602/Startup/system_bl602.c"
	.loc 1 25 1
	.cfi_startproc
	.loc 1 26 5
	.loc 1 26 22 is_stmt 0
	lui	a5,%hi(.LC0)
	lw	a5,%lo(.LC0)(a5)
	.loc 1 25 1
	addi	sp,sp,-32
	.cfi_def_cfa_offset 32
	.loc 1 27 5
	addi	a0,sp,12
	.loc 1 25 1
	sw	ra,28(sp)
	.cfi_offset 1, -4
	.loc 1 26 22
	sw	a5,12(sp)
	.loc 1 27 5 is_stmt 1
	call	HBN_Set_BOR_Cfg
.LVL0:
	.loc 1 28 1 is_stmt 0
	lw	ra,28(sp)
	.cfi_restore 1
	addi	sp,sp,32
	.cfi_def_cfa_offset 0
	jr	ra
	.cfi_endproc
.LFE8:
	.size	system_bor_init, .-system_bor_init
	.section	.text.SystemInit,"ax",@progbits
	.align	1
	.globl	SystemInit
	.type	SystemInit, @function
SystemInit:
.LFB9:
	.loc 1 31 1 is_stmt 1
	.cfi_startproc
	.loc 1 32 5
	.loc 1 33 5
.LVL1:
	.loc 1 34 5
	.loc 1 80 5
	.loc 1 31 1 is_stmt 0
	addi	sp,sp,-16
	.cfi_def_cfa_offset 16
	.loc 1 80 11
	li	a3,1073803264
	.loc 1 31 1
	sw	ra,12(sp)
	.cfi_offset 1, -4
	.loc 1 80 11
	lw	a5,20(a3)
.LVL2:
	.loc 1 81 5 is_stmt 1
	.loc 1 81 11 is_stmt 0
	li	a4,-65536
	addi	a4,a4,-1
	and	a5,a5,a4
.LVL3:
	.loc 1 82 5 is_stmt 1
	.loc 1 82 60 is_stmt 0
	sw	a5,20(a3)
	.loc 1 84 5 is_stmt 1
	li	a0,0
	call	GLB_Set_EM_Sel
.LVL4:
	.loc 1 87 5
	.loc 1 87 11 is_stmt 0
	li	a2,1073799168
	lw	a5,1048(a2)
.LVL5:
	.loc 1 88 5 is_stmt 1
	.loc 1 88 7 is_stmt 0
	li	a4,4837376
	addi	a4,a4,925
	.loc 1 88 57
	slli	a3,a5,8
	srli	a3,a3,8
	.loc 1 88 7
	bne	a3,a4,.L4
	.loc 1 89 9 is_stmt 1
	.loc 1 89 27 is_stmt 0
	li	a4,-16777216
	and	a5,a5,a4
.LVL6:
	.loc 1 89 15
	li	a4,4841472
	addi	a4,a4,-1890
	or	a5,a5,a4
.LVL7:
	.loc 1 90 9 is_stmt 1
	.loc 1 90 65 is_stmt 0
	sw	a5,1048(a2)
.L4:
	.loc 1 94 5 is_stmt 1
	li	a0,0
	call	GLB_UART_Sig_Swap_Set
.LVL8:
	.loc 1 95 5
	li	a0,0
	call	GLB_JTAG_Sig_Swap_Set
.LVL9:
	.loc 1 98 5
	.loc 1 99 5
	.loc 1 95 5 is_stmt 0
	li	a5,41943040
	addi	a4,a5,1024
	.loc 1 99 5
	addi	a5,a5,1104
.LVL10:
.L5:
	.loc 1 100 9 is_stmt 1 discriminator 3
	.loc 1 100 13 is_stmt 0 discriminator 3
	sw	zero,0(a4)
	addi	a4,a4,4
	.loc 1 99 5 discriminator 3
	bne	a4,a5,.L5
	li	a5,41943040
	.loc 1 103 5
	addi	a4,a5,80
.L6:
	.loc 1 104 9 is_stmt 1 discriminator 3
	.loc 1 104 13 is_stmt 0 discriminator 3
	sw	zero,0(a5)
	addi	a5,a5,4
	.loc 1 103 5 discriminator 3
	bne	a5,a4,.L6
	.loc 1 108 5 is_stmt 1
.LBB4:
.LBB5:
	.file 2 "/home/ubuntu/dev/bl_iot_sdk/components/bl602/bl602_std/bl602_std/RISCV/Core/Include/cmsis_compatible_gcc.h"
	.loc 2 89 3
 #APP
# 89 "/home/ubuntu/dev/bl_iot_sdk/components/bl602/bl602_std/bl602_std/RISCV/Core/Include/cmsis_compatible_gcc.h" 1
	csrsi mstatus, 8
# 0 "" 2
 #NO_APP
.LBE5:
.LBE4:
	.loc 1 111 5
	.loc 1 122 1 is_stmt 0
	lw	ra,12(sp)
	.cfi_restore 1
	addi	sp,sp,16
	.cfi_def_cfa_offset 0
	.loc 1 111 5
	tail	system_bor_init
.LVL11:
	.cfi_endproc
.LFE9:
	.size	SystemInit, .-SystemInit
	.section	.text.System_NVIC_SetPriority,"ax",@progbits
	.align	1
	.globl	System_NVIC_SetPriority
	.type	System_NVIC_SetPriority, @function
System_NVIC_SetPriority:
.LFB10:
	.loc 1 124 1 is_stmt 1
	.cfi_startproc
.LVL12:
	.loc 1 125 1
	ret
	.cfi_endproc
.LFE10:
	.size	System_NVIC_SetPriority, .-System_NVIC_SetPriority
	.section	.srodata,"a"
	.align	2
.LC0:
	.byte	1
	.byte	0
	.byte	1
	.byte	1
	.text
.Letext0:
	.file 3 "/home/ubuntu/dev/bl_iot_sdk/components/bl602/bl602_std/bl602_std/Device/Bouffalo/BL602/Peripherals/bl602.h"
	.file 4 "/home/ubuntu/dev/bl_iot_sdk/toolchain/riscv/Linux/lib/gcc/riscv64-unknown-elf/8.3.0/include/stdint-gcc.h"
	.file 5 "/home/ubuntu/dev/bl_iot_sdk/toolchain/riscv/Linux/lib/gcc/riscv64-unknown-elf/8.3.0/include/stddef.h"
	.file 6 "/home/ubuntu/dev/bl_iot_sdk/toolchain/riscv/Linux/riscv64-unknown-elf/include/sys/_types.h"
	.file 7 "/home/ubuntu/dev/bl_iot_sdk/toolchain/riscv/Linux/riscv64-unknown-elf/include/sys/reent.h"
	.file 8 "/home/ubuntu/dev/bl_iot_sdk/toolchain/riscv/Linux/riscv64-unknown-elf/include/sys/lock.h"
	.file 9 "/home/ubuntu/dev/bl_iot_sdk/components/bl602/bl602_std/bl602_std/RISCV/Device/Bouffalo/BL602/Startup/system_bl602.h"
	.file 10 "/home/ubuntu/dev/bl_iot_sdk/components/bl602/bl602_std/bl602_std/StdDriver/Inc/bl602_common.h"
	.file 11 "/home/ubuntu/dev/bl_iot_sdk/components/bl602/bl602_std/bl602_std/StdDriver/Inc/bl602_hbn.h"
	.file 12 "/home/ubuntu/dev/bl_iot_sdk/components/bl602/bl602_std/bl602_std/StdDriver/Inc/bl602_glb.h"